
../../../../project/realtek_amebaD2_va0_example/GCC-RELEASE/project_ap/asdk/build/atf/bl2/bl2.elf:     file format elf32-littlearm
../../../../project/realtek_amebaD2_va0_example/GCC-RELEASE/project_ap/asdk/build/atf/bl2/bl2.elf
architecture: armv8-a, flags 0x00000112:
EXEC_P, HAS_SYMS, D_PAGED
start address 0x701c0000

Program Header:
    LOAD off    0x00010000 vaddr 0x701c0000 paddr 0x701c0000 align 2**16
         filesz 0x000041bd memsz 0x00010000 flags rwx
private flags = 5000400: [Version5 EABI] [hard-float ABI]

Sections:
Idx Name          Size      VMA       LMA       File off  Algn
  0 .text         00003000  701c0000  701c0000  00010000  2**5
                  CONTENTS, ALLOC, LOAD, READONLY, CODE
  1 .rodata       00001000  701c3000  701c3000  00013000  2**3
                  CONTENTS, ALLOC, LOAD, READONLY, DATA
  2 .data         000001bd  701c4000  701c4000  00014000  2**3
                  CONTENTS, ALLOC, LOAD, DATA
  3 stacks        00001000  701c41c0  701c41c0  000141bd  2**6
                  ALLOC
  4 .bss          000002e0  701c51c0  701c51c0  000141bd  2**6
                  ALLOC
  5 xlat_table    0000a000  701c6000  701c6000  000141bd  2**12
                  ALLOC
  6 coherent_ram  00000000  701d0000  701d0000  00015000  2**12
                  CONTENTS
  7 .debug_info   0000b44d  00000000  00000000  00015000  2**0
                  CONTENTS, READONLY, DEBUGGING, OCTETS
  8 .debug_abbrev 000034fa  00000000  00000000  0002044d  2**0
                  CONTENTS, READONLY, DEBUGGING, OCTETS
  9 .debug_loc    00007450  00000000  00000000  00023947  2**0
                  CONTENTS, READONLY, DEBUGGING, OCTETS
 10 .debug_aranges 00000a38  00000000  00000000  0002ad98  2**3
                  CONTENTS, READONLY, DEBUGGING, OCTETS
 11 .debug_ranges 00000d90  00000000  00000000  0002b7d0  2**3
                  CONTENTS, READONLY, DEBUGGING, OCTETS
 12 .debug_line   00005e04  00000000  00000000  0002c560  2**0
                  CONTENTS, READONLY, DEBUGGING, OCTETS
 13 .debug_str    000026f4  00000000  00000000  00032364  2**0
                  CONTENTS, READONLY, DEBUGGING, OCTETS
 14 .comment      0000002d  00000000  00000000  00034a58  2**0
                  CONTENTS, READONLY
 15 .ARM.attributes 00000035  00000000  00000000  00034a85  2**0
                  CONTENTS, READONLY
 16 .debug_frame  00001560  00000000  00000000  00034abc  2**2
                  CONTENTS, READONLY, DEBUGGING, OCTETS
SYMBOL TABLE:
701c0000 l    d  .text	00000000 .text
701c3000 l    d  .rodata	00000000 .rodata
701c4000 l    d  .data	00000000 .data
701c41c0 l    d  stacks	00000000 stacks
701c51c0 l    d  .bss	00000000 .bss
701c6000 l    d  xlat_table	00000000 xlat_table
701d0000 l    d  coherent_ram	00000000 coherent_ram
00000000 l    d  .debug_info	00000000 .debug_info
00000000 l    d  .debug_abbrev	00000000 .debug_abbrev
00000000 l    d  .debug_loc	00000000 .debug_loc
00000000 l    d  .debug_aranges	00000000 .debug_aranges
00000000 l    d  .debug_ranges	00000000 .debug_ranges
00000000 l    d  .debug_line	00000000 .debug_line
00000000 l    d  .debug_str	00000000 .debug_str
00000000 l    d  .comment	00000000 .comment
00000000 l    d  .ARM.attributes	00000000 .ARM.attributes
00000000 l    d  .debug_frame	00000000 .debug_frame
00000000 l    df *ABS*	00000000 ../../../../project/realtek_amebaD2_va0_example/GCC-RELEASE/project_ap/asdk/build/atf/bl2/bl2_entrypoint.o
00000000 l    df *ABS*	00000000 io_semihosting.c
701c1658 l     F .text	00000004 device_type_sh
701c0098 l     F .text	00000014 sh_dev_open
701c165c l     F .text	0000001a sh_file_close
701c1676 l     F .text	00000032 sh_file_write
701c16a8 l     F .text	0000002e sh_file_read
701c16d6 l     F .text	00000024 sh_file_len
701c16fa l     F .text	0000001c sh_file_seek
701c1716 l     F .text	00000026 sh_file_open
701c30a8 l     O .rodata	00000004 sh_dev_connector
701c30ac l     O .rodata	00000024 sh_dev_funcs
701c30d0 l     O .rodata	00000008 sh_dev_info
00000000 l    df *ABS*	00000000 io_storage.c
701c173c l     F .text	0000001a is_valid_dev
701c1756 l     F .text	00000012 is_valid_entity
701c00cc l     F .text	00000038 free_entity.isra.0
701c53c0 l     O .bss	00000004 dev_count
701c53c4 l     O .bss	00000004 entity_count
701c53c8 l     O .bss	00000010 entity_map
701c53d8 l     O .bss	00000020 entity_pool
00000000 l    df *ABS*	00000000 io_fip.c
701c18a0 l     F .text	00000004 device_type_fip
701c18a4 l     F .text	00000016 fip_file_len
701c01ac l     F .text	00000020 fip_file_close
701c01cc l     F .text	00000070 fip_dev_init
701c023c l     F .text	00000080 fip_file_read
701c02bc l     F .text	00000040 fip_dev_open
701c02fc l     F .text	000000ac fip_file_open
701c03a8 l     F .text	00000048 fip_dev_close
701c53f8 l     O .bss	00000004 backend_dev_handle
701c53fc l     O .bss	00000004 backend_image_spec
701c51c8 l     O .bss	00000030 current_file
701c5400 l     O .bss	00000008 dev_info_pool
701c5408 l     O .bss	00000004 fip_dev_count
701c540c l     O .bss	00000008 state_pool
701c30d8 l     O .rodata	00000004 fip_dev_connector
701c30dc l     O .rodata	00000024 fip_dev_funcs
701c3318 l     O .rodata	00000010 uuid_null
00000000 l    df *ABS*	00000000 io_memmap.c
701c18ba l     F .text	00000004 device_type_memmap
701c18be l     F .text	00000004 memmap_dev_close
701c0410 l     F .text	00000014 memmap_dev_open
701c18c2 l     F .text	00000016 memmap_block_len
701c18d8 l     F .text	0000002c memmap_block_seek
701c0424 l     F .text	00000038 memmap_block_open
701c045c l     F .text	0000001c memmap_block_close
701c1904 l     F .text	00000050 memmap_block_write
701c1954 l     F .text	00000054 memmap_block_read
701c51f8 l     O .bss	00000018 current_file
701c3100 l     O .rodata	00000004 memmap_dev_connector
701c3104 l     O .rodata	00000024 memmap_dev_funcs
701c3128 l     O .rodata	00000008 memmap_dev_info
00000000 l    df *ABS*	00000000 sheipa_io_storage.c
701c0498 l     F .text	00000030 open_fip
701c04c8 l     F .text	00000030 open_memmap
701c5414 l     O .bss	00000004 fip_dev_con
701c5418 l     O .bss	00000004 fip_dev_handle
701c541c l     O .bss	00000004 memmap_dev_con
701c5420 l     O .bss	00000004 memmap_dev_handle
701c5424 l     O .bss	00000004 sh_dev_con
701c5428 l     O .bss	00000004 sh_dev_handle
701c336b l     O .rodata	00000010 bl2_uuid_spec
701c337b l     O .rodata	00000010 bl31_uuid_spec
701c338b l     O .rodata	00000010 bl32_extra1_uuid_spec
701c339b l     O .rodata	00000010 bl32_extra2_uuid_spec
701c33ab l     O .rodata	00000010 bl32_uuid_spec
701c33bb l     O .rodata	00000010 bl33_uuid_spec
701c3130 l     O .rodata	00000008 fip_block_spec
701c3138 l     O .rodata	00000114 policies
701c324c l     O .rodata	000000b8 sh_file_spec
00000000 l    df *ABS*	00000000 sheipa_bl2_setup.c
701c51c0 l     O .bss	00000008 bl2_tzram_layout
00000000 l    df *ABS*	00000000 desc_image_load.c
701c542c l     O .bss	0000000c bl_load_info
701c5438 l     O .bss	0000000c next_bl_params
00000000 l    df *ABS*	00000000 bl2_image_load_v2.c
00000000 l    df *ABS*	00000000 systimer.c
00000000 l    df *ABS*	00000000 tf_log.c
701c41b8 l     O .data	00000004 max_log_level
00000000 l    df *ABS*	00000000 multi_console.c
00000000 l    df *ABS*	00000000 plat_log_common.c
701c3304 l     O .rodata	00000014 plat_prefix_str
00000000 l    df *ABS*	00000000 sheipa_common.c
701c3000 l     O .rodata	000000a8 plat_sheipa_mmap
00000000 l    df *ABS*	00000000 sheipa_console_setup.c
701c5448 l     O .bss	0000001c console
00000000 l    df *ABS*	00000000 xlat_tables_arch.c
00000000 l    df *ABS*	00000000 xlat_tables_context.c
701c5228 l     O .bss	00000198 tf_mmap
701c4000 l     O .data	00000040 tf_xlat_ctx
701c6000 l     O xlat_table	0000a000 tf_xlat_tables
701c5480 l     O .bss	00000020 tf_base_xlat_table
00000000 l    df *ABS*	00000000 xlat_tables_core.c
701c1dc6 l     F .text	0000001a xlat_clean_dcache_range
701c1e8e l     F .text	0000016a xlat_tables_map_region
00000000 l    df *ABS*	00000000 ../../../../project/realtek_amebaD2_va0_example/GCC-RELEASE/project_ap/asdk/build/atf/bl2/semihosting_call.o
00000000 l    df *ABS*	00000000 ../../../../project/realtek_amebaD2_va0_example/GCC-RELEASE/project_ap/asdk/build/atf/bl2/platform_up_stack.o
701c41c0 l       stacks	00000000 platform_normal_stacks
00000006 l       *ABS*	00000000 TZ_COUNT
00000000 l    df *ABS*	00000000 ../../../../project/realtek_amebaD2_va0_example/GCC-RELEASE/project_ap/asdk/build/atf/bl2/debug.o
701c34fd l       .rodata	00000000 panic_msg
701c350e l       .rodata	00000000 panic_end
701c3511 l       .rodata	00000000 assert_msg1
701c351f l       .rodata	00000000 assert_msg2
701c0fd8 l       .text	00000000 dec_print_loop
00000000 l    df *ABS*	00000000 ../../../../project/realtek_amebaD2_va0_example/GCC-RELEASE/project_ap/asdk/build/atf/bl2/cache_helpers.o
701c1098 l       .text	00000000 exit_loop_cimvac
701c1084 l       .text	00000000 loop_cimvac
701c10d4 l       .text	00000000 exit_loop_cmvac
701c10c0 l       .text	00000000 loop_cmvac
701c1110 l       .text	00000000 exit_loop_imvac
701c10fc l       .text	00000000 loop_imvac
00000000 l    df *ABS*	00000000 ../../../../project/realtek_amebaD2_va0_example/GCC-RELEASE/project_ap/asdk/build/atf/bl2/misc_helpers.o
701c1184 l       .text	00000000 do_disable_mmu
00000000 l    df *ABS*	00000000 ../../../../project/realtek_amebaD2_va0_example/GCC-RELEASE/project_ap/asdk/build/atf/bl2/aeabi_uldivmod.o
00000000 l    df *ABS*	00000000 ../../../../project/realtek_amebaD2_va0_example/GCC-RELEASE/project_ap/asdk/build/atf/bl2/plat_helpers.o
701c11f0 l       .text	00000000 other_exception_lbl
701c3550 l       .rodata	00000000 undefined_str
701c1210 l       .text	00000000 print_exception_info
701c356e l       .rodata	00000000 exception_start_str
701c3581 l       .rodata	00000000 exception_end_str
701c35b5 l       .rodata	00000000 end_error_str
701c3526 l       .rodata	00000000 prefetch_abort_str
701c359f l       .rodata	00000000 ifsr_str
701c35aa l       .rodata	00000000 ifar_str
701c353d l       .rodata	00000000 data_abort_str
701c3589 l       .rodata	00000000 dfsr_str
701c3594 l       .rodata	00000000 dfar_str
00000000 l    df *ABS*	00000000 ../../../../project/realtek_amebaD2_va0_example/GCC-RELEASE/project_ap/asdk/build/atf/bl2/sheipa_console.o
701c1354 l       .text	00000000 core_register_fail
701c13a8 l       .text	00000000 register_fail
701c1408 l       .text	00000000 putc_error
701c1438 l       .text	00000000 getc_error
00000000 l    df *ABS*	00000000 ../../../../project/realtek_amebaD2_va0_example/GCC-RELEASE/project_ap/asdk/build/atf/bl2/enable_mmu.o
00000000 l    df *ABS*	00000000 printf.c
701c207c l     F .text	00000080 unsigned_num_print
00000000 l    df *ABS*	00000000 semihosting.c
00000000 l    df *ABS*	00000000 sheipa_image_load.c
00000000 l    df *ABS*	00000000 bl2_main.c
00000000 l    df *ABS*	00000000 bl2_arch_setup.c
00000000 l    df *ABS*	00000000 bl_common.c
00000000 l    df *ABS*	00000000 plat_bl_common.c
00000000 l    df *ABS*	00000000 ctzdi2.c
00000000 l    df *ABS*	00000000 udivmoddi4.c
00000000 l    df *ABS*	00000000 xlat_tables_utils.c
00000000 l    df *ABS*	00000000 assert.c
00000000 l    df *ABS*	00000000 memcmp.c
00000000 l    df *ABS*	00000000 memcpy.c
00000000 l    df *ABS*	00000000 memmove.c
00000000 l    df *ABS*	00000000 putchar.c
00000000 l    df *ABS*	00000000 strlen.c
00000000 l    df *ABS*	00000000 sheipa_bl2_mem_params_desc.c
701c4040 l     O .data	00000170 bl2_mem_params_descs
701c2160 l     F .text	00000008 __flush_dcache_range_from_thumb
701c2168 l     F .text	00000008 __enable_mmu_direct_svc_mon_from_thumb
701c2170 l     F .text	00000008 __console_putc_from_arm
701c2178 l     F .text	00000008 __clean_dcache_range_from_thumb
701c2180 l     F .text	00000008 __console_register_from_arm
701c20fc g     F .text	0000001a putchar
701c1b5e g     F .text	00000014 console_set_scope
701c5480 g       .bss	00000000 __PMF_TIMESTAMP_START__
701c0964 g     F .text	00000038 console_register
701d0000 g       coherent_ram	00000000 __COHERENT_RAM_END__
701c111c g     F .text	00000064 zeromem
701c1ff8 g     F .text	00000018 mmap_add_ctx
701c1414 g     F .text	0000002c console_core_getc
701c04f8 g     F .text	0000006c plat_sheipa_io_setup
701c5210 g     O .bss	00000018 mmu_cfg_params
701c2012 g     F .text	00000002 xlat_tables_print
701c4000 g       .rodata	00000000 __RW_START__
701c1114 g     F .text	00000008 smc
701c0614 g     F .text	00000044 bl2_plat_arch_setup
701c0f94 g     F .text	0000006c asm_assert
701c0f24 g     F .text	00000034 do_panic
701c0f84 g     F .text	00000010 report_data_abort
701c2050 g     F .text	0000002c memmove
701c0af4 g     F .text	00000094 setup_mmu_cfg
701c1a12 g     F .text	00000024 semihosting_file_write
701c0f0c g     F .text	00000008 semihosting_call
701c0a34  w    F .text	00000024 plat_log_get_prefix
701c11cc g     F .text	00000054 plat_report_exception
701c0bbc g     F .text	00000030 init_xlat_tables
701c4000 g       .data	00000000 __DATA_START__
701c06f8 g     F .text	00000028 get_bl_mem_params_node
701c1d46 g     F .text	0000001e xlat_arch_regime_get_xn_desc
701c1a5a g     F .text	00000006 bl2_platform_setup
701c203a g     F .text	00000016 memcpy
701c06a4 g     F .text	0000001c flush_bl_params_desc
701c111c g     F .text	00000064 zero_normalmem
701c0a58 g     F .text	00000070 sheipa_configure_mmu_svc_mon
701c11a8 g     F .text	00000024 __aeabi_uldivmod
701c13b8 g     F .text	00000058 console_core_putc
701c0f74 g     F .text	00000010 report_prefetch_abort
701c0bb0 g     F .text	0000000c mmap_add
701c1314 g     F .text	00000014 plat_panic_handler
701c1a60 g     F .text	00000004 plat_flush_next_bl_params
701c3610 g       .rodata	00000000 __RT_SVC_DESCS_START__
701c51c0 g       stacks	00000000 __STACKS_END__
701c1ba0 g     F .text	0000017c __udivmoddi4
701c109c g     F .text	0000003c clean_dcache_range
701c41b4 g     O .data	00000004 bl_mem_params_desc_ptr
701c1814 g     F .text	0000002a io_size
701c1a92 g     F .text	0000000e bl2_setup
701c1768 g     F .text	0000001e io_dev_open
701c1288 g     F .text	00000048 plat_report_data_abort
701c0f14  w    F .text	0000000c plat_set_my_stack
701c3610 g       .rodata	00000000 __RT_SVC_DESCS_END__
701c06c0 g     F .text	00000038 get_bl_params_node_index
701c102c g     F .text	00000034 asm_print_hex
000002e0 g       *ABS*	00000000 __BSS_SIZE__
701c1010 g     F .text	0000001c asm_print_str
701c1328 g     F .text	00000034 console_core_init
701c1308 g     F .text	0000000c plat_crash_console_flush
701c1b72  w    F .text	00000004 plat_error_handler
701c0658 g     F .text	0000004c bl2_plat_handle_post_image_load
701c099c g     F .text	00000058 console_putc
701c19a8 g     F .text	0000001a semihosting_file_open
701c12e0 g     F .text	0000001c plat_crash_console_init
701c1060 g     F .text	0000003c flush_dcache_range
701c0770 g     F .text	000000a8 get_next_bl_params_from_mem_params_desc
701c3610 g       .rodata	00000000 __PMF_SVC_DESCS_END__
701c1d24 g     F .text	00000006 xlat_get_min_virt_addr_space_size
701c14cc g     F .text	0000018c vprintf
701c1d2a g     F .text	0000001c is_dcache_enabled
701c1a64 g     F .text	00000004 plat_get_bl_image_load_info
701c19c2 g     F .text	0000001e semihosting_file_seek
701c1ace g     F .text	00000090 load_auth_image
701c4000 g       .rodata	00000000 __RODATA_END__
701d0000 g       xlat_table	00000000 __BL2_END__
701c1d64 g     F .text	00000032 xlat_arch_current_el
701c1a48 g     F .text	00000012 semihosting_file_length
701c5480 g       .bss	00000000 __PMF_PERCPU_TIMESTAMP_END__
701c1aa0 g     F .text	0000002c bl2_main
701c3000 g       .rodata	00000000 __RODATA_START__
701c41bd g       .data	00000000 __DATA_END__
701c3610 g       .rodata	00000000 __CPU_OPS_START__
701c10d8 g     F .text	0000003c inv_dcache_range
701c41bc g     O .data	00000001 console_state
701c0000 g     F .text	0000007c bl2_entrypoint
701c08d4 g     F .text	00000018 sys_timer_enable
701c201e g     F .text	0000001c memcmp
701c1de0 g     F .text	000000ae xlat_desc
701c54a0 g       .bss	00000000 __BSS_END__
701c3610 g       .rodata	00000000 __CPU_OPS_END__
701c0ac8 g     F .text	0000002c sheipa_console_init
701c17d2 g     F .text	00000042 io_seek
701c187a g     F .text	00000026 io_close
701c1b80 g     F .text	00000020 __ctzdi2
701c119c g     F .text	00000008 disable_mmu_icache_secure
701d0000 g       coherent_ram	00000000 __COHERENT_RAM_START__
701c3610 g       .rodata	00000000 __GOT_END__
701c3610 g       .rodata	00000000 __PARSER_LIB_DESCS_END__
701c2140 g       .text	00000000 bl2_vector_table
00000000 g       *ABS*	00000000 __COHERENT_RAM_UNALIGNED_SIZE__
701c41b0 g     O .data	00000004 bl_mem_params_desc_num
701c1b76  w    F .text	00000002 bl2_plat_preload_setup
701c1d1c g     F .text	00000008 xlat_arch_get_max_supported_pa
701c0818 g     F .text	000000bc bl2_load_images
701c0bec g     F .text	00000034 enable_mmu_svc_mon
701c00ac g     F .text	00000020 register_io_dev_sh
701c1acc g     F .text	00000002 bl2_arch_setup
701c3610 g       .rodata	00000000 __GOT_START__
00000000 g       *ABS*	00000000 __PERCPU_TIMESTAMP_SIZE__
701c3000 g       .text	00000000 __TEXT_END__
701c3610 g       .rodata	00000000 __FCONF_POPULATOR_END__
701c1a6c g     F .text	00000026 flush_bl_params_desc_args
701c05f0 g     F .text	00000024 bl2_early_platform_setup2
701c1180 g     F .text	0000001c disable_mmu_secure
701c1444 g     F .text	00000008 console_core_flush
701c135c g     F .text	00000050 console_core_register
701c09f4 g     F .text	00000040 console_flush
701c1786 g     F .text	00000028 io_dev_init
701c183e g     F .text	0000003c io_read
701c1a36 g     F .text	00000012 semihosting_file_close
701c51c0 g       .bss	00000000 __BSS_START__
701c0c20 g     F .text	000001e4 mmap_add_region_ctx
701c1b7c  w    F .text	00000004 plat_try_next_boot_source
701c3610 g       .rodata	00000000 __PMF_SVC_DESCS_START__
701c12fc g     F .text	0000000c plat_crash_console_putc
701c0128 g     F .text	00000084 io_open
701c0940 g     F .text	00000024 console_is_registered
701c1d96 g     F .text	00000030 is_mmu_enabled_ctx
701c0564 g     F .text	0000008c plat_get_image_source
701c08ec g     F .text	00000054 tf_log
701c0104 g     F .text	00000024 io_register_device
701c3610 g       .rodata	00000000 __FCONF_POPULATOR_START__
701d0000 g       xlat_table	00000000 __RW_END__
701d0000 g       coherent_ram	00000000 __COHERENT_RAM_END_UNALIGNED__
701c1230 g     F .text	00000048 plat_report_prefetch_abort
701c0720 g     F .text	00000050 get_bl_load_info_from_mem_params_desc
701c41c0 g       stacks	00000000 __STACKS_START__
701c5480 g       .bss	00000000 __PMF_TIMESTAMP_END__
701c0e04 g     F .text	00000108 init_xlat_tables_ctx
701c1b78  w    F .text	00000004 bl2_plat_handle_pre_image_load
701c0478 g     F .text	00000020 register_io_dev_memmap
701c2116 g     F .text	00000010 strlen
701c0f60 g     F .text	00000014 report_exception
701c17ae g     F .text	00000024 io_dev_close
701c2014 g     F .text	0000000a __assert
701c2010 g     F .text	00000002 xlat_mmap_print
701c03f0 g     F .text	00000020 register_io_dev_fip
701c144c g     F .text	00000074 enable_mmu_direct_svc_mon
701c5444 g     O .bss	00000004 console_list
701c1a68 g     F .text	00000004 plat_get_next_bl_params
701c0b88 g     F .text	00000028 mmap_add_region
701c0000 g       .text	00000000 __TEXT_START__
701c3610 g       .rodata	00000000 __PARSER_LIB_DESCS_START__
701c19e0 g     F .text	00000032 semihosting_file_read



Disassembly of section .text:

701c0000 <bl2_entrypoint>:
701c0000:	e1a09000 	mov	r9, r0
701c0004:	e1a0a001 	mov	sl, r1
701c0008:	e1a0b002 	mov	fp, r2
701c000c:	e1a0c003 	mov	ip, r3
701c0010:	e59f0064 	ldr	r0, [pc, #100]	; 701c007c <bl2_entrypoint+0x7c>
701c0014:	ee0c0f10 	mcr	15, 0, r0, cr12, cr0, {0}
701c0018:	f57ff06f 	isb	sy
701c001c:	ee110f10 	mrc	15, 0, r0, cr1, cr0, {0}
701c0020:	e3800a01 	orr	r0, r0, #4096	; 0x1000
701c0024:	e3c00102 	bic	r0, r0, #-2147483648	; 0x80000000
701c0028:	ee010f10 	mcr	15, 0, r0, cr1, cr0, {0}
701c002c:	f57ff06f 	isb	sy
701c0030:	e59f0048 	ldr	r0, [pc, #72]	; 701c0080 <bl2_entrypoint+0x80>
701c0034:	e59f1048 	ldr	r1, [pc, #72]	; 701c0084 <bl2_entrypoint+0x84>
701c0038:	e0411000 	sub	r1, r1, r0
701c003c:	eb000425 	bl	701c10d8 <inv_dcache_range>
701c0040:	e59f0040 	ldr	r0, [pc, #64]	; 701c0088 <bl2_entrypoint+0x88>
701c0044:	e59f1040 	ldr	r1, [pc, #64]	; 701c008c <bl2_entrypoint+0x8c>
701c0048:	eb000433 	bl	701c111c <zero_normalmem>
701c004c:	e59f003c 	ldr	r0, [pc, #60]	; 701c0090 <bl2_entrypoint+0x90>
701c0050:	e59f103c 	ldr	r1, [pc, #60]	; 701c0094 <bl2_entrypoint+0x94>
701c0054:	eb000430 	bl	701c111c <zero_normalmem>
701c0058:	eb0003ad 	bl	701c0f14 <plat_set_my_stack>
701c005c:	e1a00009 	mov	r0, r9
701c0060:	e1a0100a 	mov	r1, sl
701c0064:	e1a0200b 	mov	r2, fp
701c0068:	e1a0300c 	mov	r3, ip
701c006c:	fb000687 	blx	701c1a92 <bl2_setup>
701c0070:	fa00068a 	blx	701c1aa0 <bl2_main>
701c0074:	eb0004a6 	bl	701c1314 <plat_panic_handler>
701c0078:	e320f000 	nop	{0}
701c007c:	701c2140 	.word	0x701c2140
701c0080:	701c4000 	.word	0x701c4000
701c0084:	701d0000 	.word	0x701d0000
701c0088:	701c51c0 	.word	0x701c51c0
701c008c:	000002e0 	.word	0x000002e0
701c0090:	701d0000 	.word	0x701d0000
701c0094:	00000000 	.word	0x00000000

701c0098 <sh_dev_open>:
701c0098:	b508      	push	{r3, lr}
701c009a:	b909      	cbnz	r1, 701c00a0 <sh_dev_open+0x8>
701c009c:	f001 ffba 	bl	701c2014 <__assert>
701c00a0:	4b01      	ldr	r3, [pc, #4]	; (701c00a8 <sh_dev_open+0x10>)
701c00a2:	2000      	movs	r0, #0
701c00a4:	600b      	str	r3, [r1, #0]
701c00a6:	bd08      	pop	{r3, pc}
701c00a8:	701c30d0 	.word	0x701c30d0

701c00ac <register_io_dev_sh>:
701c00ac:	b510      	push	{r4, lr}
701c00ae:	4604      	mov	r4, r0
701c00b0:	b908      	cbnz	r0, 701c00b6 <register_io_dev_sh+0xa>
701c00b2:	f001 ffaf 	bl	701c2014 <__assert>
701c00b6:	4803      	ldr	r0, [pc, #12]	; (701c00c4 <register_io_dev_sh+0x18>)
701c00b8:	f000 f824 	bl	701c0104 <io_register_device>
701c00bc:	b908      	cbnz	r0, 701c00c2 <register_io_dev_sh+0x16>
701c00be:	4b02      	ldr	r3, [pc, #8]	; (701c00c8 <register_io_dev_sh+0x1c>)
701c00c0:	6023      	str	r3, [r4, #0]
701c00c2:	bd10      	pop	{r4, pc}
701c00c4:	701c30d0 	.word	0x701c30d0
701c00c8:	701c30a8 	.word	0x701c30a8

701c00cc <free_entity.isra.0>:
701c00cc:	b510      	push	{r4, lr}
701c00ce:	b908      	cbnz	r0, 701c00d4 <free_entity.isra.0+0x8>
701c00d0:	f001 ffa0 	bl	701c2014 <__assert>
701c00d4:	4a09      	ldr	r2, [pc, #36]	; (701c00fc <free_entity.isra.0+0x30>)
701c00d6:	2300      	movs	r3, #0
701c00d8:	4611      	mov	r1, r2
701c00da:	f852 4b04 	ldr.w	r4, [r2], #4
701c00de:	42a0      	cmp	r0, r4
701c00e0:	d003      	beq.n	701c00ea <free_entity.isra.0+0x1e>
701c00e2:	3301      	adds	r3, #1
701c00e4:	2b04      	cmp	r3, #4
701c00e6:	d1f8      	bne.n	701c00da <free_entity.isra.0+0xe>
701c00e8:	bd10      	pop	{r4, pc}
701c00ea:	2200      	movs	r2, #0
701c00ec:	f841 2023 	str.w	r2, [r1, r3, lsl #2]
701c00f0:	4a03      	ldr	r2, [pc, #12]	; (701c0100 <free_entity.isra.0+0x34>)
701c00f2:	6813      	ldr	r3, [r2, #0]
701c00f4:	3b01      	subs	r3, #1
701c00f6:	6013      	str	r3, [r2, #0]
701c00f8:	e7f6      	b.n	701c00e8 <free_entity.isra.0+0x1c>
701c00fa:	bf00      	nop
701c00fc:	701c53c8 	.word	0x701c53c8
701c0100:	701c53c4 	.word	0x701c53c4

701c0104 <io_register_device>:
701c0104:	b508      	push	{r3, lr}
701c0106:	b908      	cbnz	r0, 701c010c <io_register_device+0x8>
701c0108:	f001 ff84 	bl	701c2014 <__assert>
701c010c:	4a05      	ldr	r2, [pc, #20]	; (701c0124 <io_register_device+0x20>)
701c010e:	6813      	ldr	r3, [r2, #0]
701c0110:	2b02      	cmp	r3, #2
701c0112:	d803      	bhi.n	701c011c <io_register_device+0x18>
701c0114:	2000      	movs	r0, #0
701c0116:	3301      	adds	r3, #1
701c0118:	6013      	str	r3, [r2, #0]
701c011a:	bd08      	pop	{r3, pc}
701c011c:	f06f 000b 	mvn.w	r0, #11
701c0120:	e7fb      	b.n	701c011a <io_register_device+0x16>
701c0122:	bf00      	nop
701c0124:	701c53c0 	.word	0x701c53c0

701c0128 <io_open>:
701c0128:	e92d 43f8 	stmdb	sp!, {r3, r4, r5, r6, r7, r8, r9, lr}
701c012c:	4606      	mov	r6, r0
701c012e:	4690      	mov	r8, r2
701c0130:	460d      	mov	r5, r1
701c0132:	b101      	cbz	r1, 701c0136 <io_open+0xe>
701c0134:	b90a      	cbnz	r2, 701c013a <io_open+0x12>
701c0136:	f001 ff6d 	bl	701c2014 <__assert>
701c013a:	f001 faff 	bl	701c173c <is_valid_dev>
701c013e:	2800      	cmp	r0, #0
701c0140:	d0f9      	beq.n	701c0136 <io_open+0xe>
701c0142:	4917      	ldr	r1, [pc, #92]	; (701c01a0 <io_open+0x78>)
701c0144:	680b      	ldr	r3, [r1, #0]
701c0146:	2b03      	cmp	r3, #3
701c0148:	d80d      	bhi.n	701c0166 <io_open+0x3e>
701c014a:	4a16      	ldr	r2, [pc, #88]	; (701c01a4 <io_open+0x7c>)
701c014c:	2400      	movs	r4, #0
701c014e:	4610      	mov	r0, r2
701c0150:	f852 7b04 	ldr.w	r7, [r2], #4
701c0154:	b157      	cbz	r7, 701c016c <io_open+0x44>
701c0156:	3401      	adds	r4, #1
701c0158:	2c04      	cmp	r4, #4
701c015a:	d1f9      	bne.n	701c0150 <io_open+0x28>
701c015c:	e7eb      	b.n	701c0136 <io_open+0xe>
701c015e:	4638      	mov	r0, r7
701c0160:	f7ff ffb4 	bl	701c00cc <free_entity.isra.0>
701c0164:	e019      	b.n	701c019a <io_open+0x72>
701c0166:	f06f 050b 	mvn.w	r5, #11
701c016a:	e016      	b.n	701c019a <io_open+0x72>
701c016c:	3301      	adds	r3, #1
701c016e:	600b      	str	r3, [r1, #0]
701c0170:	6833      	ldr	r3, [r6, #0]
701c0172:	f8df 9034 	ldr.w	r9, [pc, #52]	; 701c01a8 <io_open+0x80>
701c0176:	685b      	ldr	r3, [r3, #4]
701c0178:	eb09 07c4 	add.w	r7, r9, r4, lsl #3
701c017c:	f840 7024 	str.w	r7, [r0, r4, lsl #2]
701c0180:	2b00      	cmp	r3, #0
701c0182:	d0d8      	beq.n	701c0136 <io_open+0xe>
701c0184:	4629      	mov	r1, r5
701c0186:	463a      	mov	r2, r7
701c0188:	4630      	mov	r0, r6
701c018a:	4798      	blx	r3
701c018c:	4605      	mov	r5, r0
701c018e:	2800      	cmp	r0, #0
701c0190:	d1e5      	bne.n	701c015e <io_open+0x36>
701c0192:	f849 6034 	str.w	r6, [r9, r4, lsl #3]
701c0196:	f8c8 7000 	str.w	r7, [r8]
701c019a:	4628      	mov	r0, r5
701c019c:	e8bd 83f8 	ldmia.w	sp!, {r3, r4, r5, r6, r7, r8, r9, pc}
701c01a0:	701c53c4 	.word	0x701c53c4
701c01a4:	701c53c8 	.word	0x701c53c8
701c01a8:	701c53d8 	.word	0x701c53d8

701c01ac <fip_file_close>:
701c01ac:	b510      	push	{r4, lr}
701c01ae:	4604      	mov	r4, r0
701c01b0:	4805      	ldr	r0, [pc, #20]	; (701c01c8 <fip_file_close+0x1c>)
701c01b2:	e9d0 2306 	ldrd	r2, r3, [r0, #24]
701c01b6:	4313      	orrs	r3, r2
701c01b8:	d002      	beq.n	701c01c0 <fip_file_close+0x14>
701c01ba:	2130      	movs	r1, #48	; 0x30
701c01bc:	f000 efae 	blx	701c111c <zero_normalmem>
701c01c0:	2000      	movs	r0, #0
701c01c2:	6060      	str	r0, [r4, #4]
701c01c4:	bd10      	pop	{r4, pc}
701c01c6:	bf00      	nop
701c01c8:	701c51c8 	.word	0x701c51c8

701c01cc <fip_dev_init>:
701c01cc:	b570      	push	{r4, r5, r6, lr}
701c01ce:	4603      	mov	r3, r0
701c01d0:	4608      	mov	r0, r1
701c01d2:	b086      	sub	sp, #24
701c01d4:	b90b      	cbnz	r3, 701c01da <fip_dev_init+0xe>
701c01d6:	f001 ff1d 	bl	701c2014 <__assert>
701c01da:	4d15      	ldr	r5, [pc, #84]	; (701c0230 <fip_dev_init+0x64>)
701c01dc:	4c15      	ldr	r4, [pc, #84]	; (701c0234 <fip_dev_init+0x68>)
701c01de:	462a      	mov	r2, r5
701c01e0:	685e      	ldr	r6, [r3, #4]
701c01e2:	4621      	mov	r1, r4
701c01e4:	f000 f9be 	bl	701c0564 <plat_get_image_source>
701c01e8:	b120      	cbz	r0, 701c01f4 <fip_dev_init+0x28>
701c01ea:	f06f 0401 	mvn.w	r4, #1
701c01ee:	4620      	mov	r0, r4
701c01f0:	b006      	add	sp, #24
701c01f2:	bd70      	pop	{r4, r5, r6, pc}
701c01f4:	6829      	ldr	r1, [r5, #0]
701c01f6:	466a      	mov	r2, sp
701c01f8:	6820      	ldr	r0, [r4, #0]
701c01fa:	f7ff ff95 	bl	701c0128 <io_open>
701c01fe:	2800      	cmp	r0, #0
701c0200:	d1f3      	bne.n	701c01ea <fip_dev_init+0x1e>
701c0202:	9800      	ldr	r0, [sp, #0]
701c0204:	ab01      	add	r3, sp, #4
701c0206:	2210      	movs	r2, #16
701c0208:	a902      	add	r1, sp, #8
701c020a:	f001 fb18 	bl	701c183e <io_read>
701c020e:	4604      	mov	r4, r0
701c0210:	b938      	cbnz	r0, 701c0222 <fip_dev_init+0x56>
701c0212:	4b09      	ldr	r3, [pc, #36]	; (701c0238 <fip_dev_init+0x6c>)
701c0214:	9a02      	ldr	r2, [sp, #8]
701c0216:	429a      	cmp	r2, r3
701c0218:	d107      	bne.n	701c022a <fip_dev_init+0x5e>
701c021a:	9b03      	ldr	r3, [sp, #12]
701c021c:	b12b      	cbz	r3, 701c022a <fip_dev_init+0x5e>
701c021e:	9b05      	ldr	r3, [sp, #20]
701c0220:	80b3      	strh	r3, [r6, #4]
701c0222:	9800      	ldr	r0, [sp, #0]
701c0224:	f001 fb29 	bl	701c187a <io_close>
701c0228:	e7e1      	b.n	701c01ee <fip_dev_init+0x22>
701c022a:	f06f 0401 	mvn.w	r4, #1
701c022e:	e7f8      	b.n	701c0222 <fip_dev_init+0x56>
701c0230:	701c53fc 	.word	0x701c53fc
701c0234:	701c53f8 	.word	0x701c53f8
701c0238:	aa640001 	.word	0xaa640001

701c023c <fip_file_read>:
701c023c:	e92d 41f3 	stmdb	sp!, {r0, r1, r4, r5, r6, r7, r8, lr}
701c0240:	460f      	mov	r7, r1
701c0242:	4690      	mov	r8, r2
701c0244:	461e      	mov	r6, r3
701c0246:	4604      	mov	r4, r0
701c0248:	b908      	cbnz	r0, 701c024e <fip_file_read+0x12>
701c024a:	f001 fee3 	bl	701c2014 <__assert>
701c024e:	2b00      	cmp	r3, #0
701c0250:	d0fb      	beq.n	701c024a <fip_file_read+0xe>
701c0252:	6843      	ldr	r3, [r0, #4]
701c0254:	2b00      	cmp	r3, #0
701c0256:	d0f8      	beq.n	701c024a <fip_file_read+0xe>
701c0258:	4b16      	ldr	r3, [pc, #88]	; (701c02b4 <fip_file_read+0x78>)
701c025a:	aa01      	add	r2, sp, #4
701c025c:	6819      	ldr	r1, [r3, #0]
701c025e:	4b16      	ldr	r3, [pc, #88]	; (701c02b8 <fip_file_read+0x7c>)
701c0260:	6818      	ldr	r0, [r3, #0]
701c0262:	f7ff ff61 	bl	701c0128 <io_open>
701c0266:	4603      	mov	r3, r0
701c0268:	bb00      	cbnz	r0, 701c02ac <fip_file_read+0x70>
701c026a:	6865      	ldr	r5, [r4, #4]
701c026c:	9801      	ldr	r0, [sp, #4]
701c026e:	69a9      	ldr	r1, [r5, #24]
701c0270:	682a      	ldr	r2, [r5, #0]
701c0272:	440a      	add	r2, r1
701c0274:	2101      	movs	r1, #1
701c0276:	f001 faac 	bl	701c17d2 <io_seek>
701c027a:	b140      	cbz	r0, 701c028e <fip_file_read+0x52>
701c027c:	f06f 0401 	mvn.w	r4, #1
701c0280:	9801      	ldr	r0, [sp, #4]
701c0282:	f001 fafa 	bl	701c187a <io_close>
701c0286:	4620      	mov	r0, r4
701c0288:	b002      	add	sp, #8
701c028a:	e8bd 81f0 	ldmia.w	sp!, {r4, r5, r6, r7, r8, pc}
701c028e:	9801      	ldr	r0, [sp, #4]
701c0290:	466b      	mov	r3, sp
701c0292:	4642      	mov	r2, r8
701c0294:	4639      	mov	r1, r7
701c0296:	f001 fad2 	bl	701c183e <io_read>
701c029a:	4604      	mov	r4, r0
701c029c:	2800      	cmp	r0, #0
701c029e:	d1ed      	bne.n	701c027c <fip_file_read+0x40>
701c02a0:	9a00      	ldr	r2, [sp, #0]
701c02a2:	6032      	str	r2, [r6, #0]
701c02a4:	682b      	ldr	r3, [r5, #0]
701c02a6:	4413      	add	r3, r2
701c02a8:	602b      	str	r3, [r5, #0]
701c02aa:	e7e9      	b.n	701c0280 <fip_file_read+0x44>
701c02ac:	f06f 0401 	mvn.w	r4, #1
701c02b0:	e7e9      	b.n	701c0286 <fip_file_read+0x4a>
701c02b2:	bf00      	nop
701c02b4:	701c53fc 	.word	0x701c53fc
701c02b8:	701c53f8 	.word	0x701c53f8

701c02bc <fip_dev_open>:
701c02bc:	b570      	push	{r4, r5, r6, lr}
701c02be:	4604      	mov	r4, r0
701c02c0:	b909      	cbnz	r1, 701c02c6 <fip_dev_open+0xa>
701c02c2:	f001 fea7 	bl	701c2014 <__assert>
701c02c6:	4d09      	ldr	r5, [pc, #36]	; (701c02ec <fip_dev_open+0x30>)
701c02c8:	682b      	ldr	r3, [r5, #0]
701c02ca:	b963      	cbnz	r3, 701c02e6 <fip_dev_open+0x2a>
701c02cc:	4a08      	ldr	r2, [pc, #32]	; (701c02f0 <fip_dev_open+0x34>)
701c02ce:	6810      	ldr	r0, [r2, #0]
701c02d0:	2800      	cmp	r0, #0
701c02d2:	d1f6      	bne.n	701c02c2 <fip_dev_open+0x6>
701c02d4:	4b07      	ldr	r3, [pc, #28]	; (701c02f4 <fip_dev_open+0x38>)
701c02d6:	4e08      	ldr	r6, [pc, #32]	; (701c02f8 <fip_dev_open+0x3c>)
701c02d8:	6014      	str	r4, [r2, #0]
701c02da:	601e      	str	r6, [r3, #0]
701c02dc:	2601      	movs	r6, #1
701c02de:	605a      	str	r2, [r3, #4]
701c02e0:	602e      	str	r6, [r5, #0]
701c02e2:	600b      	str	r3, [r1, #0]
701c02e4:	bd70      	pop	{r4, r5, r6, pc}
701c02e6:	f06f 000b 	mvn.w	r0, #11
701c02ea:	e7fb      	b.n	701c02e4 <fip_dev_open+0x28>
701c02ec:	701c5408 	.word	0x701c5408
701c02f0:	701c540c 	.word	0x701c540c
701c02f4:	701c5400 	.word	0x701c5400
701c02f8:	701c30dc 	.word	0x701c30dc

701c02fc <fip_file_open>:
701c02fc:	e92d 43f7 	stmdb	sp!, {r0, r1, r2, r4, r5, r6, r7, r8, r9, lr}
701c0300:	4616      	mov	r6, r2
701c0302:	460f      	mov	r7, r1
701c0304:	b909      	cbnz	r1, 701c030a <fip_file_open+0xe>
701c0306:	f001 fe85 	bl	701c2014 <__assert>
701c030a:	2a00      	cmp	r2, #0
701c030c:	d0fb      	beq.n	701c0306 <fip_file_open+0xa>
701c030e:	4d22      	ldr	r5, [pc, #136]	; (701c0398 <fip_file_open+0x9c>)
701c0310:	e9d5 2306 	ldrd	r2, r3, [r5, #24]
701c0314:	4313      	orrs	r3, r2
701c0316:	d135      	bne.n	701c0384 <fip_file_open+0x88>
701c0318:	4b20      	ldr	r3, [pc, #128]	; (701c039c <fip_file_open+0xa0>)
701c031a:	466a      	mov	r2, sp
701c031c:	6819      	ldr	r1, [r3, #0]
701c031e:	4b20      	ldr	r3, [pc, #128]	; (701c03a0 <fip_file_open+0xa4>)
701c0320:	6818      	ldr	r0, [r3, #0]
701c0322:	f7ff ff01 	bl	701c0128 <io_open>
701c0326:	bb80      	cbnz	r0, 701c038a <fip_file_open+0x8e>
701c0328:	9800      	ldr	r0, [sp, #0]
701c032a:	2210      	movs	r2, #16
701c032c:	2300      	movs	r3, #0
701c032e:	2101      	movs	r1, #1
701c0330:	f001 fa4f 	bl	701c17d2 <io_seek>
701c0334:	b9e8      	cbnz	r0, 701c0372 <fip_file_open+0x76>
701c0336:	f8df 906c 	ldr.w	r9, [pc, #108]	; 701c03a4 <fip_file_open+0xa8>
701c033a:	f105 0808 	add.w	r8, r5, #8
701c033e:	9800      	ldr	r0, [sp, #0]
701c0340:	ab01      	add	r3, sp, #4
701c0342:	2228      	movs	r2, #40	; 0x28
701c0344:	4641      	mov	r1, r8
701c0346:	f001 fa7a 	bl	701c183e <io_read>
701c034a:	4604      	mov	r4, r0
701c034c:	b998      	cbnz	r0, 701c0376 <fip_file_open+0x7a>
701c034e:	2210      	movs	r2, #16
701c0350:	4639      	mov	r1, r7
701c0352:	4640      	mov	r0, r8
701c0354:	f001 fe63 	bl	701c201e <memcmp>
701c0358:	4604      	mov	r4, r0
701c035a:	b1c8      	cbz	r0, 701c0390 <fip_file_open+0x94>
701c035c:	2210      	movs	r2, #16
701c035e:	4649      	mov	r1, r9
701c0360:	4640      	mov	r0, r8
701c0362:	f001 fe5c 	bl	701c201e <memcmp>
701c0366:	2800      	cmp	r0, #0
701c0368:	d1e9      	bne.n	701c033e <fip_file_open+0x42>
701c036a:	efc0 0010 	vmov.i32	d16, #0	; 0x00000000
701c036e:	edc5 0b06 	vstr	d16, [r5, #24]
701c0372:	f06f 0401 	mvn.w	r4, #1
701c0376:	9800      	ldr	r0, [sp, #0]
701c0378:	f001 fa7f 	bl	701c187a <io_close>
701c037c:	4620      	mov	r0, r4
701c037e:	b003      	add	sp, #12
701c0380:	e8bd 83f0 	ldmia.w	sp!, {r4, r5, r6, r7, r8, r9, pc}
701c0384:	f06f 040b 	mvn.w	r4, #11
701c0388:	e7f8      	b.n	701c037c <fip_file_open+0x80>
701c038a:	f06f 0401 	mvn.w	r4, #1
701c038e:	e7f5      	b.n	701c037c <fip_file_open+0x80>
701c0390:	6028      	str	r0, [r5, #0]
701c0392:	6075      	str	r5, [r6, #4]
701c0394:	e7ef      	b.n	701c0376 <fip_file_open+0x7a>
701c0396:	bf00      	nop
701c0398:	701c51c8 	.word	0x701c51c8
701c039c:	701c53fc 	.word	0x701c53fc
701c03a0:	701c53f8 	.word	0x701c53f8
701c03a4:	701c3318 	.word	0x701c3318

701c03a8 <fip_dev_close>:
701c03a8:	4b0d      	ldr	r3, [pc, #52]	; (701c03e0 <fip_dev_close+0x38>)
701c03aa:	b510      	push	{r4, lr}
701c03ac:	2400      	movs	r4, #0
701c03ae:	601c      	str	r4, [r3, #0]
701c03b0:	4b0c      	ldr	r3, [pc, #48]	; (701c03e4 <fip_dev_close+0x3c>)
701c03b2:	601c      	str	r4, [r3, #0]
701c03b4:	b908      	cbnz	r0, 701c03ba <fip_dev_close+0x12>
701c03b6:	f001 fe2d 	bl	701c2014 <__assert>
701c03ba:	4b0b      	ldr	r3, [pc, #44]	; (701c03e8 <fip_dev_close+0x40>)
701c03bc:	6840      	ldr	r0, [r0, #4]
701c03be:	681b      	ldr	r3, [r3, #0]
701c03c0:	6802      	ldr	r2, [r0, #0]
701c03c2:	429a      	cmp	r2, r3
701c03c4:	d108      	bne.n	701c03d8 <fip_dev_close+0x30>
701c03c6:	2108      	movs	r1, #8
701c03c8:	f000 eea8 	blx	701c111c <zero_normalmem>
701c03cc:	4a07      	ldr	r2, [pc, #28]	; (701c03ec <fip_dev_close+0x44>)
701c03ce:	4620      	mov	r0, r4
701c03d0:	6813      	ldr	r3, [r2, #0]
701c03d2:	3b01      	subs	r3, #1
701c03d4:	6013      	str	r3, [r2, #0]
701c03d6:	bd10      	pop	{r4, pc}
701c03d8:	f06f 0001 	mvn.w	r0, #1
701c03dc:	e7fb      	b.n	701c03d6 <fip_dev_close+0x2e>
701c03de:	bf00      	nop
701c03e0:	701c53f8 	.word	0x701c53f8
701c03e4:	701c53fc 	.word	0x701c53fc
701c03e8:	701c540c 	.word	0x701c540c
701c03ec:	701c5408 	.word	0x701c5408

701c03f0 <register_io_dev_fip>:
701c03f0:	b510      	push	{r4, lr}
701c03f2:	4604      	mov	r4, r0
701c03f4:	b908      	cbnz	r0, 701c03fa <register_io_dev_fip+0xa>
701c03f6:	f001 fe0d 	bl	701c2014 <__assert>
701c03fa:	4803      	ldr	r0, [pc, #12]	; (701c0408 <register_io_dev_fip+0x18>)
701c03fc:	f7ff fe82 	bl	701c0104 <io_register_device>
701c0400:	b908      	cbnz	r0, 701c0406 <register_io_dev_fip+0x16>
701c0402:	4b02      	ldr	r3, [pc, #8]	; (701c040c <register_io_dev_fip+0x1c>)
701c0404:	6023      	str	r3, [r4, #0]
701c0406:	bd10      	pop	{r4, pc}
701c0408:	701c5400 	.word	0x701c5400
701c040c:	701c30d8 	.word	0x701c30d8

701c0410 <memmap_dev_open>:
701c0410:	b508      	push	{r3, lr}
701c0412:	b909      	cbnz	r1, 701c0418 <memmap_dev_open+0x8>
701c0414:	f001 fdfe 	bl	701c2014 <__assert>
701c0418:	4b01      	ldr	r3, [pc, #4]	; (701c0420 <memmap_dev_open+0x10>)
701c041a:	2000      	movs	r0, #0
701c041c:	600b      	str	r3, [r1, #0]
701c041e:	bd08      	pop	{r3, pc}
701c0420:	701c3128 	.word	0x701c3128

701c0424 <memmap_block_open>:
701c0424:	4b0c      	ldr	r3, [pc, #48]	; (701c0458 <memmap_block_open+0x34>)
701c0426:	b510      	push	{r4, lr}
701c0428:	6818      	ldr	r0, [r3, #0]
701c042a:	b988      	cbnz	r0, 701c0450 <memmap_block_open+0x2c>
701c042c:	b909      	cbnz	r1, 701c0432 <memmap_block_open+0xe>
701c042e:	f001 fdf1 	bl	701c2014 <__assert>
701c0432:	2a00      	cmp	r2, #0
701c0434:	d0fb      	beq.n	701c042e <memmap_block_open+0xa>
701c0436:	efc0 0010 	vmov.i32	d16, #0	; 0x00000000
701c043a:	2401      	movs	r4, #1
701c043c:	601c      	str	r4, [r3, #0]
701c043e:	680c      	ldr	r4, [r1, #0]
701c0440:	6849      	ldr	r1, [r1, #4]
701c0442:	605c      	str	r4, [r3, #4]
701c0444:	e9c3 1004 	strd	r1, r0, [r3, #16]
701c0448:	edc3 0b02 	vstr	d16, [r3, #8]
701c044c:	6053      	str	r3, [r2, #4]
701c044e:	bd10      	pop	{r4, pc}
701c0450:	f06f 000b 	mvn.w	r0, #11
701c0454:	e7fb      	b.n	701c044e <memmap_block_open+0x2a>
701c0456:	bf00      	nop
701c0458:	701c51f8 	.word	0x701c51f8

701c045c <memmap_block_close>:
701c045c:	b510      	push	{r4, lr}
701c045e:	b908      	cbnz	r0, 701c0464 <memmap_block_close+0x8>
701c0460:	f001 fdd8 	bl	701c2014 <__assert>
701c0464:	2400      	movs	r4, #0
701c0466:	2118      	movs	r1, #24
701c0468:	6044      	str	r4, [r0, #4]
701c046a:	4802      	ldr	r0, [pc, #8]	; (701c0474 <memmap_block_close+0x18>)
701c046c:	f000 ee56 	blx	701c111c <zero_normalmem>
701c0470:	4620      	mov	r0, r4
701c0472:	bd10      	pop	{r4, pc}
701c0474:	701c51f8 	.word	0x701c51f8

701c0478 <register_io_dev_memmap>:
701c0478:	b510      	push	{r4, lr}
701c047a:	4604      	mov	r4, r0
701c047c:	b908      	cbnz	r0, 701c0482 <register_io_dev_memmap+0xa>
701c047e:	f001 fdc9 	bl	701c2014 <__assert>
701c0482:	4803      	ldr	r0, [pc, #12]	; (701c0490 <register_io_dev_memmap+0x18>)
701c0484:	f7ff fe3e 	bl	701c0104 <io_register_device>
701c0488:	b908      	cbnz	r0, 701c048e <register_io_dev_memmap+0x16>
701c048a:	4b02      	ldr	r3, [pc, #8]	; (701c0494 <register_io_dev_memmap+0x1c>)
701c048c:	6023      	str	r3, [r4, #0]
701c048e:	bd10      	pop	{r4, pc}
701c0490:	701c3128 	.word	0x701c3128
701c0494:	701c3100 	.word	0x701c3100

701c0498 <open_fip>:
701c0498:	b573      	push	{r0, r1, r4, r5, r6, lr}
701c049a:	4605      	mov	r5, r0
701c049c:	4e09      	ldr	r6, [pc, #36]	; (701c04c4 <open_fip+0x2c>)
701c049e:	2100      	movs	r1, #0
701c04a0:	6830      	ldr	r0, [r6, #0]
701c04a2:	f001 f970 	bl	701c1786 <io_dev_init>
701c04a6:	4604      	mov	r4, r0
701c04a8:	b948      	cbnz	r0, 701c04be <open_fip+0x26>
701c04aa:	6830      	ldr	r0, [r6, #0]
701c04ac:	aa01      	add	r2, sp, #4
701c04ae:	4629      	mov	r1, r5
701c04b0:	f7ff fe3a 	bl	701c0128 <io_open>
701c04b4:	4604      	mov	r4, r0
701c04b6:	b910      	cbnz	r0, 701c04be <open_fip+0x26>
701c04b8:	9801      	ldr	r0, [sp, #4]
701c04ba:	f001 f9de 	bl	701c187a <io_close>
701c04be:	4620      	mov	r0, r4
701c04c0:	b002      	add	sp, #8
701c04c2:	bd70      	pop	{r4, r5, r6, pc}
701c04c4:	701c5418 	.word	0x701c5418

701c04c8 <open_memmap>:
701c04c8:	b573      	push	{r0, r1, r4, r5, r6, lr}
701c04ca:	4605      	mov	r5, r0
701c04cc:	4e09      	ldr	r6, [pc, #36]	; (701c04f4 <open_memmap+0x2c>)
701c04ce:	2100      	movs	r1, #0
701c04d0:	6830      	ldr	r0, [r6, #0]
701c04d2:	f001 f958 	bl	701c1786 <io_dev_init>
701c04d6:	4604      	mov	r4, r0
701c04d8:	b948      	cbnz	r0, 701c04ee <open_memmap+0x26>
701c04da:	6830      	ldr	r0, [r6, #0]
701c04dc:	aa01      	add	r2, sp, #4
701c04de:	4629      	mov	r1, r5
701c04e0:	f7ff fe22 	bl	701c0128 <io_open>
701c04e4:	4604      	mov	r4, r0
701c04e6:	b910      	cbnz	r0, 701c04ee <open_memmap+0x26>
701c04e8:	9801      	ldr	r0, [sp, #4]
701c04ea:	f001 f9c6 	bl	701c187a <io_close>
701c04ee:	4620      	mov	r0, r4
701c04f0:	b002      	add	sp, #8
701c04f2:	bd70      	pop	{r4, r5, r6, pc}
701c04f4:	701c5420 	.word	0x701c5420

701c04f8 <plat_sheipa_io_setup>:
701c04f8:	b538      	push	{r3, r4, r5, lr}
701c04fa:	4d14      	ldr	r5, [pc, #80]	; (701c054c <plat_sheipa_io_setup+0x54>)
701c04fc:	4628      	mov	r0, r5
701c04fe:	f7ff ff77 	bl	701c03f0 <register_io_dev_fip>
701c0502:	b108      	cbz	r0, 701c0508 <plat_sheipa_io_setup+0x10>
701c0504:	f001 fd86 	bl	701c2014 <__assert>
701c0508:	4c11      	ldr	r4, [pc, #68]	; (701c0550 <plat_sheipa_io_setup+0x58>)
701c050a:	4620      	mov	r0, r4
701c050c:	f7ff ffb4 	bl	701c0478 <register_io_dev_memmap>
701c0510:	4601      	mov	r1, r0
701c0512:	2800      	cmp	r0, #0
701c0514:	d1f6      	bne.n	701c0504 <plat_sheipa_io_setup+0xc>
701c0516:	4a0f      	ldr	r2, [pc, #60]	; (701c0554 <plat_sheipa_io_setup+0x5c>)
701c0518:	6828      	ldr	r0, [r5, #0]
701c051a:	f001 f925 	bl	701c1768 <io_dev_open>
701c051e:	4601      	mov	r1, r0
701c0520:	2800      	cmp	r0, #0
701c0522:	d1ef      	bne.n	701c0504 <plat_sheipa_io_setup+0xc>
701c0524:	4a0c      	ldr	r2, [pc, #48]	; (701c0558 <plat_sheipa_io_setup+0x60>)
701c0526:	6820      	ldr	r0, [r4, #0]
701c0528:	f001 f91e 	bl	701c1768 <io_dev_open>
701c052c:	2800      	cmp	r0, #0
701c052e:	d1e9      	bne.n	701c0504 <plat_sheipa_io_setup+0xc>
701c0530:	4c0a      	ldr	r4, [pc, #40]	; (701c055c <plat_sheipa_io_setup+0x64>)
701c0532:	4620      	mov	r0, r4
701c0534:	f7ff fdba 	bl	701c00ac <register_io_dev_sh>
701c0538:	4601      	mov	r1, r0
701c053a:	2800      	cmp	r0, #0
701c053c:	d1e2      	bne.n	701c0504 <plat_sheipa_io_setup+0xc>
701c053e:	4a08      	ldr	r2, [pc, #32]	; (701c0560 <plat_sheipa_io_setup+0x68>)
701c0540:	6820      	ldr	r0, [r4, #0]
701c0542:	f001 f911 	bl	701c1768 <io_dev_open>
701c0546:	2800      	cmp	r0, #0
701c0548:	d1dc      	bne.n	701c0504 <plat_sheipa_io_setup+0xc>
701c054a:	bd38      	pop	{r3, r4, r5, pc}
701c054c:	701c5414 	.word	0x701c5414
701c0550:	701c541c 	.word	0x701c541c
701c0554:	701c5418 	.word	0x701c5418
701c0558:	701c5420 	.word	0x701c5420
701c055c:	701c5424 	.word	0x701c5424
701c0560:	701c5428 	.word	0x701c5428

701c0564 <plat_get_image_source>:
701c0564:	e92d 47f3 	stmdb	sp!, {r0, r1, r4, r5, r6, r7, r8, r9, sl, lr}
701c0568:	2816      	cmp	r0, #22
701c056a:	4605      	mov	r5, r0
701c056c:	460f      	mov	r7, r1
701c056e:	4616      	mov	r6, r2
701c0570:	d901      	bls.n	701c0576 <plat_get_image_source+0x12>
701c0572:	f001 fd4f 	bl	701c2014 <__assert>
701c0576:	f04f 080c 	mov.w	r8, #12
701c057a:	f8df 906c 	ldr.w	r9, [pc, #108]	; 701c05e8 <plat_get_image_source+0x84>
701c057e:	fb08 f800 	mul.w	r8, r8, r0
701c0582:	eb09 0308 	add.w	r3, r9, r8
701c0586:	f8d3 a004 	ldr.w	sl, [r3, #4]
701c058a:	689b      	ldr	r3, [r3, #8]
701c058c:	4650      	mov	r0, sl
701c058e:	4798      	blx	r3
701c0590:	4604      	mov	r4, r0
701c0592:	b948      	cbnz	r0, 701c05a8 <plat_get_image_source+0x44>
701c0594:	f859 3008 	ldr.w	r3, [r9, r8]
701c0598:	f8c6 a000 	str.w	sl, [r6]
701c059c:	681b      	ldr	r3, [r3, #0]
701c059e:	603b      	str	r3, [r7, #0]
701c05a0:	4620      	mov	r0, r4
701c05a2:	b002      	add	sp, #8
701c05a4:	e8bd 87f0 	ldmia.w	sp!, {r4, r5, r6, r7, r8, r9, sl, pc}
701c05a8:	f8df 8040 	ldr.w	r8, [pc, #64]	; 701c05ec <plat_get_image_source+0x88>
701c05ac:	2100      	movs	r1, #0
701c05ae:	f8d8 0000 	ldr.w	r0, [r8]
701c05b2:	f001 f8e8 	bl	701c1786 <io_dev_init>
701c05b6:	4604      	mov	r4, r0
701c05b8:	2800      	cmp	r0, #0
701c05ba:	d1f1      	bne.n	701c05a0 <plat_get_image_source+0x3c>
701c05bc:	4809      	ldr	r0, [pc, #36]	; (701c05e4 <plat_get_image_source+0x80>)
701c05be:	aa01      	add	r2, sp, #4
701c05c0:	eb00 05c5 	add.w	r5, r0, r5, lsl #3
701c05c4:	f8d8 0000 	ldr.w	r0, [r8]
701c05c8:	4629      	mov	r1, r5
701c05ca:	f7ff fdad 	bl	701c0128 <io_open>
701c05ce:	4604      	mov	r4, r0
701c05d0:	2800      	cmp	r0, #0
701c05d2:	d1e5      	bne.n	701c05a0 <plat_get_image_source+0x3c>
701c05d4:	9801      	ldr	r0, [sp, #4]
701c05d6:	f001 f950 	bl	701c187a <io_close>
701c05da:	f8d8 3000 	ldr.w	r3, [r8]
701c05de:	603b      	str	r3, [r7, #0]
701c05e0:	6035      	str	r5, [r6, #0]
701c05e2:	e7dd      	b.n	701c05a0 <plat_get_image_source+0x3c>
701c05e4:	701c324c 	.word	0x701c324c
701c05e8:	701c3138 	.word	0x701c3138
701c05ec:	701c5428 	.word	0x701c5428

701c05f0 <bl2_early_platform_setup2>:
701c05f0:	b508      	push	{r3, lr}
701c05f2:	f000 fa69 	bl	701c0ac8 <sheipa_console_init>
701c05f6:	4b05      	ldr	r3, [pc, #20]	; (701c060c <bl2_early_platform_setup2+0x1c>)
701c05f8:	f44f 2280 	mov.w	r2, #262144	; 0x40000
701c05fc:	4904      	ldr	r1, [pc, #16]	; (701c0610 <bl2_early_platform_setup2+0x20>)
701c05fe:	e9c3 1200 	strd	r1, r2, [r3]
701c0602:	e8bd 4008 	ldmia.w	sp!, {r3, lr}
701c0606:	f7ff bf77 	b.w	701c04f8 <plat_sheipa_io_setup>
701c060a:	bf00      	nop
701c060c:	701c51c0 	.word	0x701c51c0
701c0610:	701c0000 	.word	0x701c0000

701c0614 <bl2_plat_arch_setup>:
701c0614:	b51f      	push	{r0, r1, r2, r3, r4, lr}
701c0616:	4b09      	ldr	r3, [pc, #36]	; (701c063c <bl2_plat_arch_setup+0x28>)
701c0618:	9303      	str	r3, [sp, #12]
701c061a:	4b09      	ldr	r3, [pc, #36]	; (701c0640 <bl2_plat_arch_setup+0x2c>)
701c061c:	9302      	str	r3, [sp, #8]
701c061e:	4809      	ldr	r0, [pc, #36]	; (701c0644 <bl2_plat_arch_setup+0x30>)
701c0620:	4b09      	ldr	r3, [pc, #36]	; (701c0648 <bl2_plat_arch_setup+0x34>)
701c0622:	9301      	str	r3, [sp, #4]
701c0624:	4b09      	ldr	r3, [pc, #36]	; (701c064c <bl2_plat_arch_setup+0x38>)
701c0626:	9300      	str	r3, [sp, #0]
701c0628:	4a09      	ldr	r2, [pc, #36]	; (701c0650 <bl2_plat_arch_setup+0x3c>)
701c062a:	4b0a      	ldr	r3, [pc, #40]	; (701c0654 <bl2_plat_arch_setup+0x40>)
701c062c:	e9d0 0100 	ldrd	r0, r1, [r0]
701c0630:	f000 fa12 	bl	701c0a58 <sheipa_configure_mmu_svc_mon>
701c0634:	b005      	add	sp, #20
701c0636:	f85d fb04 	ldr.w	pc, [sp], #4
701c063a:	bf00      	nop
701c063c:	701d0000 	.word	0x701d0000
701c0640:	701d0000 	.word	0x701d0000
701c0644:	701c51c0 	.word	0x701c51c0
701c0648:	701c4000 	.word	0x701c4000
701c064c:	701c3000 	.word	0x701c3000
701c0650:	701c0000 	.word	0x701c0000
701c0654:	701c3000 	.word	0x701c3000

701c0658 <bl2_plat_handle_post_image_load>:
701c0658:	b510      	push	{r4, lr}
701c065a:	4604      	mov	r4, r0
701c065c:	f000 f84c 	bl	701c06f8 <get_bl_mem_params_node>
701c0660:	b908      	cbnz	r0, 701c0666 <bl2_plat_handle_post_image_load+0xe>
701c0662:	f001 fcd7 	bl	701c2014 <__assert>
701c0666:	2c04      	cmp	r4, #4
701c0668:	d013      	beq.n	701c0692 <bl2_plat_handle_post_image_load+0x3a>
701c066a:	2c05      	cmp	r4, #5
701c066c:	d001      	beq.n	701c0672 <bl2_plat_handle_post_image_load+0x1a>
701c066e:	2000      	movs	r0, #0
701c0670:	bd10      	pop	{r4, pc}
701c0672:	4b0a      	ldr	r3, [pc, #40]	; (701c069c <bl2_plat_handle_post_image_load+0x44>)
701c0674:	f44f 1140 	mov.w	r1, #3145728	; 0x300000
701c0678:	4a09      	ldr	r2, [pc, #36]	; (701c06a0 <bl2_plat_handle_post_image_load+0x48>)
701c067a:	e9c3 120e 	strd	r1, r2, [r3, #56]	; 0x38
701c067e:	6c1a      	ldr	r2, [r3, #64]	; 0x40
701c0680:	f042 0280 	orr.w	r2, r2, #128	; 0x80
701c0684:	641a      	str	r2, [r3, #64]	; 0x40
701c0686:	2201      	movs	r2, #1
701c0688:	645a      	str	r2, [r3, #68]	; 0x44
701c068a:	ee10 3fb0 	mrc	15, 0, r3, cr0, cr0, {5}
701c068e:	b29b      	uxth	r3, r3
701c0690:	62c3      	str	r3, [r0, #44]	; 0x2c
701c0692:	f240 13d3 	movw	r3, #467	; 0x1d3
701c0696:	6243      	str	r3, [r0, #36]	; 0x24
701c0698:	e7e9      	b.n	701c066e <bl2_plat_handle_post_image_load+0x16>
701c069a:	bf00      	nop
701c069c:	51001a00 	.word	0x51001a00
701c06a0:	005fffff 	.word	0x005fffff

701c06a4 <flush_bl_params_desc>:
701c06a4:	4b03      	ldr	r3, [pc, #12]	; (701c06b4 <flush_bl_params_desc+0x10>)
701c06a6:	4a04      	ldr	r2, [pc, #16]	; (701c06b8 <flush_bl_params_desc+0x14>)
701c06a8:	6819      	ldr	r1, [r3, #0]
701c06aa:	4b04      	ldr	r3, [pc, #16]	; (701c06bc <flush_bl_params_desc+0x18>)
701c06ac:	6818      	ldr	r0, [r3, #0]
701c06ae:	f001 b9dd 	b.w	701c1a6c <flush_bl_params_desc_args>
701c06b2:	bf00      	nop
701c06b4:	701c41b0 	.word	0x701c41b0
701c06b8:	701c5438 	.word	0x701c5438
701c06bc:	701c41b4 	.word	0x701c41b4

701c06c0 <get_bl_params_node_index>:
701c06c0:	b538      	push	{r3, r4, r5, lr}
701c06c2:	1c42      	adds	r2, r0, #1
701c06c4:	4603      	mov	r3, r0
701c06c6:	d00a      	beq.n	701c06de <get_bl_params_node_index+0x1e>
701c06c8:	4a09      	ldr	r2, [pc, #36]	; (701c06f0 <get_bl_params_node_index+0x30>)
701c06ca:	2000      	movs	r0, #0
701c06cc:	4909      	ldr	r1, [pc, #36]	; (701c06f4 <get_bl_params_node_index+0x34>)
701c06ce:	245c      	movs	r4, #92	; 0x5c
701c06d0:	6812      	ldr	r2, [r2, #0]
701c06d2:	6809      	ldr	r1, [r1, #0]
701c06d4:	4290      	cmp	r0, r2
701c06d6:	d104      	bne.n	701c06e2 <get_bl_params_node_index+0x22>
701c06d8:	f04f 30ff 	mov.w	r0, #4294967295	; 0xffffffff
701c06dc:	bd38      	pop	{r3, r4, r5, pc}
701c06de:	f001 fc99 	bl	701c2014 <__assert>
701c06e2:	fb04 f500 	mul.w	r5, r4, r0
701c06e6:	594d      	ldr	r5, [r1, r5]
701c06e8:	42ab      	cmp	r3, r5
701c06ea:	d0f7      	beq.n	701c06dc <get_bl_params_node_index+0x1c>
701c06ec:	3001      	adds	r0, #1
701c06ee:	e7f1      	b.n	701c06d4 <get_bl_params_node_index+0x14>
701c06f0:	701c41b0 	.word	0x701c41b0
701c06f4:	701c41b4 	.word	0x701c41b4

701c06f8 <get_bl_mem_params_node>:
701c06f8:	b508      	push	{r3, lr}
701c06fa:	1c43      	adds	r3, r0, #1
701c06fc:	d101      	bne.n	701c0702 <get_bl_mem_params_node+0xa>
701c06fe:	f001 fc89 	bl	701c2014 <__assert>
701c0702:	f7ff ffdd 	bl	701c06c0 <get_bl_params_node_index>
701c0706:	1e03      	subs	r3, r0, #0
701c0708:	db05      	blt.n	701c0716 <get_bl_mem_params_node+0x1e>
701c070a:	4a04      	ldr	r2, [pc, #16]	; (701c071c <get_bl_mem_params_node+0x24>)
701c070c:	6810      	ldr	r0, [r2, #0]
701c070e:	225c      	movs	r2, #92	; 0x5c
701c0710:	fb02 0003 	mla	r0, r2, r3, r0
701c0714:	bd08      	pop	{r3, pc}
701c0716:	2000      	movs	r0, #0
701c0718:	e7fc      	b.n	701c0714 <get_bl_mem_params_node+0x1c>
701c071a:	bf00      	nop
701c071c:	701c41b4 	.word	0x701c41b4

701c0720 <get_bl_load_info_from_mem_params_desc>:
701c0720:	4b0f      	ldr	r3, [pc, #60]	; (701c0760 <get_bl_load_info_from_mem_params_desc+0x40>)
701c0722:	b510      	push	{r4, lr}
701c0724:	6818      	ldr	r0, [r3, #0]
701c0726:	b1c8      	cbz	r0, 701c075c <get_bl_load_info_from_mem_params_desc+0x3c>
701c0728:	4b0e      	ldr	r3, [pc, #56]	; (701c0764 <get_bl_load_info_from_mem_params_desc+0x44>)
701c072a:	4c0f      	ldr	r4, [pc, #60]	; (701c0768 <get_bl_load_info_from_mem_params_desc+0x48>)
701c072c:	4a0f      	ldr	r2, [pc, #60]	; (701c076c <get_bl_load_info_from_mem_params_desc+0x4c>)
701c072e:	681b      	ldr	r3, [r3, #0]
701c0730:	6022      	str	r2, [r4, #0]
701c0732:	2200      	movs	r2, #0
701c0734:	f103 0140 	add.w	r1, r3, #64	; 0x40
701c0738:	3304      	adds	r3, #4
701c073a:	60a1      	str	r1, [r4, #8]
701c073c:	6062      	str	r2, [r4, #4]
701c073e:	f853 4c04 	ldr.w	r4, [r3, #-4]
701c0742:	3201      	adds	r2, #1
701c0744:	4290      	cmp	r0, r2
701c0746:	600c      	str	r4, [r1, #0]
701c0748:	604b      	str	r3, [r1, #4]
701c074a:	d903      	bls.n	701c0754 <get_bl_load_info_from_mem_params_desc+0x34>
701c074c:	f103 0498 	add.w	r4, r3, #152	; 0x98
701c0750:	608c      	str	r4, [r1, #8]
701c0752:	4621      	mov	r1, r4
701c0754:	335c      	adds	r3, #92	; 0x5c
701c0756:	4290      	cmp	r0, r2
701c0758:	d1f1      	bne.n	701c073e <get_bl_load_info_from_mem_params_desc+0x1e>
701c075a:	4803      	ldr	r0, [pc, #12]	; (701c0768 <get_bl_load_info_from_mem_params_desc+0x48>)
701c075c:	bd10      	pop	{r4, pc}
701c075e:	bf00      	nop
701c0760:	701c41b0 	.word	0x701c41b0
701c0764:	701c41b4 	.word	0x701c41b4
701c0768:	701c542c 	.word	0x701c542c
701c076c:	000c0204 	.word	0x000c0204

701c0770 <get_next_bl_params_from_mem_params_desc>:
701c0770:	4b25      	ldr	r3, [pc, #148]	; (701c0808 <get_next_bl_params_from_mem_params_desc+0x98>)
701c0772:	e92d 41f0 	stmdb	sp!, {r4, r5, r6, r7, r8, lr}
701c0776:	681c      	ldr	r4, [r3, #0]
701c0778:	2c00      	cmp	r4, #0
701c077a:	d03f      	beq.n	701c07fc <get_next_bl_params_from_mem_params_desc+0x8c>
701c077c:	4b23      	ldr	r3, [pc, #140]	; (701c080c <get_next_bl_params_from_mem_params_desc+0x9c>)
701c077e:	2000      	movs	r0, #0
701c0780:	215c      	movs	r1, #92	; 0x5c
701c0782:	681d      	ldr	r5, [r3, #0]
701c0784:	fb01 5300 	mla	r3, r1, r0, r5
701c0788:	69da      	ldr	r2, [r3, #28]
701c078a:	f002 0218 	and.w	r2, r2, #24
701c078e:	2a18      	cmp	r2, #24
701c0790:	d12a      	bne.n	701c07e8 <get_next_bl_params_from_mem_params_desc+0x78>
701c0792:	4a1f      	ldr	r2, [pc, #124]	; (701c0810 <get_next_bl_params_from_mem_params_desc+0xa0>)
701c0794:	334c      	adds	r3, #76	; 0x4c
701c0796:	6093      	str	r3, [r2, #8]
701c0798:	4b1d      	ldr	r3, [pc, #116]	; (701c0810 <get_next_bl_params_from_mem_params_desc+0xa0>)
701c079a:	f04f 085c 	mov.w	r8, #92	; 0x5c
701c079e:	4a1d      	ldr	r2, [pc, #116]	; (701c0814 <get_next_bl_params_from_mem_params_desc+0xa4>)
701c07a0:	601a      	str	r2, [r3, #0]
701c07a2:	2200      	movs	r2, #0
701c07a4:	4616      	mov	r6, r2
701c07a6:	605a      	str	r2, [r3, #4]
701c07a8:	fb08 f000 	mul.w	r0, r8, r0
701c07ac:	182b      	adds	r3, r5, r0
701c07ae:	69d9      	ldr	r1, [r3, #28]
701c07b0:	0709      	lsls	r1, r1, #28
701c07b2:	d51f      	bpl.n	701c07f4 <get_next_bl_params_from_mem_params_desc+0x84>
701c07b4:	5829      	ldr	r1, [r5, r0]
701c07b6:	f103 074c 	add.w	r7, r3, #76	; 0x4c
701c07ba:	64d9      	str	r1, [r3, #76]	; 0x4c
701c07bc:	1d19      	adds	r1, r3, #4
701c07be:	6519      	str	r1, [r3, #80]	; 0x50
701c07c0:	f103 0118 	add.w	r1, r3, #24
701c07c4:	6559      	str	r1, [r3, #84]	; 0x54
701c07c6:	b112      	cbz	r2, 701c07ce <get_next_bl_params_from_mem_params_desc+0x5e>
701c07c8:	68d1      	ldr	r1, [r2, #12]
701c07ca:	b999      	cbnz	r1, 701c07f4 <get_next_bl_params_from_mem_params_desc+0x84>
701c07cc:	60d7      	str	r7, [r2, #12]
701c07ce:	6bd8      	ldr	r0, [r3, #60]	; 0x3c
701c07d0:	1c43      	adds	r3, r0, #1
701c07d2:	d016      	beq.n	701c0802 <get_next_bl_params_from_mem_params_desc+0x92>
701c07d4:	f7ff ff74 	bl	701c06c0 <get_bl_params_node_index>
701c07d8:	b160      	cbz	r0, 701c07f4 <get_next_bl_params_from_mem_params_desc+0x84>
701c07da:	4284      	cmp	r4, r0
701c07dc:	d90a      	bls.n	701c07f4 <get_next_bl_params_from_mem_params_desc+0x84>
701c07de:	3601      	adds	r6, #1
701c07e0:	42b4      	cmp	r4, r6
701c07e2:	d007      	beq.n	701c07f4 <get_next_bl_params_from_mem_params_desc+0x84>
701c07e4:	463a      	mov	r2, r7
701c07e6:	e7df      	b.n	701c07a8 <get_next_bl_params_from_mem_params_desc+0x38>
701c07e8:	3001      	adds	r0, #1
701c07ea:	4284      	cmp	r4, r0
701c07ec:	d1ca      	bne.n	701c0784 <get_next_bl_params_from_mem_params_desc+0x14>
701c07ee:	4b08      	ldr	r3, [pc, #32]	; (701c0810 <get_next_bl_params_from_mem_params_desc+0xa0>)
701c07f0:	689b      	ldr	r3, [r3, #8]
701c07f2:	b90b      	cbnz	r3, 701c07f8 <get_next_bl_params_from_mem_params_desc+0x88>
701c07f4:	f001 fc0e 	bl	701c2014 <__assert>
701c07f8:	2000      	movs	r0, #0
701c07fa:	e7cd      	b.n	701c0798 <get_next_bl_params_from_mem_params_desc+0x28>
701c07fc:	4620      	mov	r0, r4
701c07fe:	e8bd 81f0 	ldmia.w	sp!, {r4, r5, r6, r7, r8, pc}
701c0802:	4803      	ldr	r0, [pc, #12]	; (701c0810 <get_next_bl_params_from_mem_params_desc+0xa0>)
701c0804:	e7fb      	b.n	701c07fe <get_next_bl_params_from_mem_params_desc+0x8e>
701c0806:	bf00      	nop
701c0808:	701c41b0 	.word	0x701c41b0
701c080c:	701c41b4 	.word	0x701c41b4
701c0810:	701c5438 	.word	0x701c5438
701c0814:	000c0205 	.word	0x000c0205

701c0818 <bl2_load_images>:
701c0818:	b570      	push	{r4, r5, r6, lr}
701c081a:	f001 f923 	bl	701c1a64 <plat_get_bl_image_load_info>
701c081e:	b908      	cbnz	r0, 701c0824 <bl2_load_images+0xc>
701c0820:	f001 fbf8 	bl	701c2014 <__assert>
701c0824:	6884      	ldr	r4, [r0, #8]
701c0826:	2c00      	cmp	r4, #0
701c0828:	d0fa      	beq.n	701c0820 <bl2_load_images+0x8>
701c082a:	7803      	ldrb	r3, [r0, #0]
701c082c:	2b04      	cmp	r3, #4
701c082e:	d1f7      	bne.n	701c0820 <bl2_load_images+0x8>
701c0830:	7843      	ldrb	r3, [r0, #1]
701c0832:	2b01      	cmp	r3, #1
701c0834:	d9f4      	bls.n	701c0820 <bl2_load_images+0x8>
701c0836:	2600      	movs	r6, #0
701c0838:	6863      	ldr	r3, [r4, #4]
701c083a:	685b      	ldr	r3, [r3, #4]
701c083c:	075a      	lsls	r2, r3, #29
701c083e:	d503      	bpl.n	701c0848 <bl2_load_images+0x30>
701c0840:	b916      	cbnz	r6, 701c0848 <bl2_load_images+0x30>
701c0842:	2601      	movs	r6, #1
701c0844:	f001 f909 	bl	701c1a5a <bl2_platform_setup>
701c0848:	6820      	ldr	r0, [r4, #0]
701c084a:	f001 f995 	bl	701c1b78 <bl2_plat_handle_pre_image_load>
701c084e:	4605      	mov	r5, r0
701c0850:	b120      	cbz	r0, 701c085c <bl2_load_images+0x44>
701c0852:	4601      	mov	r1, r0
701c0854:	481c      	ldr	r0, [pc, #112]	; (701c08c8 <bl2_load_images+0xb0>)
701c0856:	f000 f849 	bl	701c08ec <tf_log>
701c085a:	e00d      	b.n	701c0878 <bl2_load_images+0x60>
701c085c:	6861      	ldr	r1, [r4, #4]
701c085e:	684b      	ldr	r3, [r1, #4]
701c0860:	079b      	lsls	r3, r3, #30
701c0862:	d40c      	bmi.n	701c087e <bl2_load_images+0x66>
701c0864:	6820      	ldr	r0, [r4, #0]
701c0866:	f001 f932 	bl	701c1ace <load_auth_image>
701c086a:	4605      	mov	r5, r0
701c086c:	b138      	cbz	r0, 701c087e <bl2_load_images+0x66>
701c086e:	4602      	mov	r2, r0
701c0870:	6821      	ldr	r1, [r4, #0]
701c0872:	4816      	ldr	r0, [pc, #88]	; (701c08cc <bl2_load_images+0xb4>)
701c0874:	f000 f83a 	bl	701c08ec <tf_log>
701c0878:	4628      	mov	r0, r5
701c087a:	f001 f97a 	bl	701c1b72 <plat_error_handler>
701c087e:	6820      	ldr	r0, [r4, #0]
701c0880:	f7ff feea 	bl	701c0658 <bl2_plat_handle_post_image_load>
701c0884:	4605      	mov	r5, r0
701c0886:	b110      	cbz	r0, 701c088e <bl2_load_images+0x76>
701c0888:	4601      	mov	r1, r0
701c088a:	4811      	ldr	r0, [pc, #68]	; (701c08d0 <bl2_load_images+0xb8>)
701c088c:	e7e3      	b.n	701c0856 <bl2_load_images+0x3e>
701c088e:	68a4      	ldr	r4, [r4, #8]
701c0890:	2c00      	cmp	r4, #0
701c0892:	d1d1      	bne.n	701c0838 <bl2_load_images+0x20>
701c0894:	f001 f8e8 	bl	701c1a68 <plat_get_next_bl_params>
701c0898:	4604      	mov	r4, r0
701c089a:	2800      	cmp	r0, #0
701c089c:	d0c0      	beq.n	701c0820 <bl2_load_images+0x8>
701c089e:	6883      	ldr	r3, [r0, #8]
701c08a0:	2b00      	cmp	r3, #0
701c08a2:	d0bd      	beq.n	701c0820 <bl2_load_images+0x8>
701c08a4:	7802      	ldrb	r2, [r0, #0]
701c08a6:	2a05      	cmp	r2, #5
701c08a8:	d1ba      	bne.n	701c0820 <bl2_load_images+0x8>
701c08aa:	7842      	ldrb	r2, [r0, #1]
701c08ac:	2a01      	cmp	r2, #1
701c08ae:	d9b7      	bls.n	701c0820 <bl2_load_images+0x8>
701c08b0:	689b      	ldr	r3, [r3, #8]
701c08b2:	2b00      	cmp	r3, #0
701c08b4:	d0b4      	beq.n	701c0820 <bl2_load_images+0x8>
701c08b6:	695a      	ldr	r2, [r3, #20]
701c08b8:	b902      	cbnz	r2, 701c08bc <bl2_load_images+0xa4>
701c08ba:	6158      	str	r0, [r3, #20]
701c08bc:	f001 f8d0 	bl	701c1a60 <plat_flush_next_bl_params>
701c08c0:	68a3      	ldr	r3, [r4, #8]
701c08c2:	6898      	ldr	r0, [r3, #8]
701c08c4:	bd70      	pop	{r4, r5, r6, pc}
701c08c6:	bf00      	nop
701c08c8:	701c33cb 	.word	0x701c33cb
701c08cc:	701c33fa 	.word	0x701c33fa
701c08d0:	701c3421 	.word	0x701c3421

701c08d4 <sys_timer_enable>:
701c08d4:	4a04      	ldr	r2, [pc, #16]	; (701c08e8 <sys_timer_enable+0x14>)
701c08d6:	6813      	ldr	r3, [r2, #0]
701c08d8:	b118      	cbz	r0, 701c08e2 <sys_timer_enable+0xe>
701c08da:	f043 0301 	orr.w	r3, r3, #1
701c08de:	6013      	str	r3, [r2, #0]
701c08e0:	4770      	bx	lr
701c08e2:	f023 0301 	bic.w	r3, r3, #1
701c08e6:	e7fa      	b.n	701c08de <sys_timer_enable+0xa>
701c08e8:	b0002000 	.word	0xb0002000

701c08ec <tf_log>:
701c08ec:	b40f      	push	{r0, r1, r2, r3}
701c08ee:	b537      	push	{r0, r1, r2, r4, r5, lr}
701c08f0:	9d06      	ldr	r5, [sp, #24]
701c08f2:	7828      	ldrb	r0, [r5, #0]
701c08f4:	1e43      	subs	r3, r0, #1
701c08f6:	2b31      	cmp	r3, #49	; 0x31
701c08f8:	d901      	bls.n	701c08fe <tf_log+0x12>
701c08fa:	f001 fb8b 	bl	701c2014 <__assert>
701c08fe:	220a      	movs	r2, #10
701c0900:	fbb0 f3f2 	udiv	r3, r0, r2
701c0904:	fb02 0313 	mls	r3, r2, r3, r0
701c0908:	2b00      	cmp	r3, #0
701c090a:	d1f6      	bne.n	701c08fa <tf_log+0xe>
701c090c:	4b0b      	ldr	r3, [pc, #44]	; (701c093c <tf_log+0x50>)
701c090e:	681b      	ldr	r3, [r3, #0]
701c0910:	4283      	cmp	r3, r0
701c0912:	d30a      	bcc.n	701c092a <tf_log+0x3e>
701c0914:	f000 f88e 	bl	701c0a34 <plat_log_get_prefix>
701c0918:	1e44      	subs	r4, r0, #1
701c091a:	f814 0f01 	ldrb.w	r0, [r4, #1]!
701c091e:	b948      	cbnz	r0, 701c0934 <tf_log+0x48>
701c0920:	a907      	add	r1, sp, #28
701c0922:	1c68      	adds	r0, r5, #1
701c0924:	9101      	str	r1, [sp, #4]
701c0926:	f000 fdd1 	bl	701c14cc <vprintf>
701c092a:	b003      	add	sp, #12
701c092c:	e8bd 4030 	ldmia.w	sp!, {r4, r5, lr}
701c0930:	b004      	add	sp, #16
701c0932:	4770      	bx	lr
701c0934:	f001 fbe2 	bl	701c20fc <putchar>
701c0938:	e7ef      	b.n	701c091a <tf_log+0x2e>
701c093a:	bf00      	nop
701c093c:	701c41b8 	.word	0x701c41b8

701c0940 <console_is_registered>:
701c0940:	b508      	push	{r3, lr}
701c0942:	4603      	mov	r3, r0
701c0944:	b908      	cbnz	r0, 701c094a <console_is_registered+0xa>
701c0946:	f001 fb65 	bl	701c2014 <__assert>
701c094a:	4a05      	ldr	r2, [pc, #20]	; (701c0960 <console_is_registered+0x20>)
701c094c:	6810      	ldr	r0, [r2, #0]
701c094e:	b900      	cbnz	r0, 701c0952 <console_is_registered+0x12>
701c0950:	bd08      	pop	{r3, pc}
701c0952:	4298      	cmp	r0, r3
701c0954:	d001      	beq.n	701c095a <console_is_registered+0x1a>
701c0956:	6800      	ldr	r0, [r0, #0]
701c0958:	e7f9      	b.n	701c094e <console_is_registered+0xe>
701c095a:	2001      	movs	r0, #1
701c095c:	e7f8      	b.n	701c0950 <console_is_registered+0x10>
701c095e:	bf00      	nop
701c0960:	701c5444 	.word	0x701c5444

701c0964 <console_register>:
701c0964:	4b0a      	ldr	r3, [pc, #40]	; (701c0990 <console_register+0x2c>)
701c0966:	b510      	push	{r4, lr}
701c0968:	4604      	mov	r4, r0
701c096a:	4298      	cmp	r0, r3
701c096c:	d304      	bcc.n	701c0978 <console_register+0x14>
701c096e:	4b09      	ldr	r3, [pc, #36]	; (701c0994 <console_register+0x30>)
701c0970:	4298      	cmp	r0, r3
701c0972:	d201      	bcs.n	701c0978 <console_register+0x14>
701c0974:	f001 fb4e 	bl	701c2014 <__assert>
701c0978:	4620      	mov	r0, r4
701c097a:	f7ff ffe1 	bl	701c0940 <console_is_registered>
701c097e:	2801      	cmp	r0, #1
701c0980:	d003      	beq.n	701c098a <console_register+0x26>
701c0982:	4b05      	ldr	r3, [pc, #20]	; (701c0998 <console_register+0x34>)
701c0984:	681a      	ldr	r2, [r3, #0]
701c0986:	6022      	str	r2, [r4, #0]
701c0988:	601c      	str	r4, [r3, #0]
701c098a:	2001      	movs	r0, #1
701c098c:	bd10      	pop	{r4, pc}
701c098e:	bf00      	nop
701c0990:	701c41c0 	.word	0x701c41c0
701c0994:	701c51c0 	.word	0x701c51c0
701c0998:	701c5444 	.word	0x701c5444

701c099c <console_putc>:
701c099c:	b5f8      	push	{r3, r4, r5, r6, r7, lr}
701c099e:	4606      	mov	r6, r0
701c09a0:	4b12      	ldr	r3, [pc, #72]	; (701c09ec <console_putc+0x50>)
701c09a2:	4f13      	ldr	r7, [pc, #76]	; (701c09f0 <console_putc+0x54>)
701c09a4:	f06f 057f 	mvn.w	r5, #127	; 0x7f
701c09a8:	681c      	ldr	r4, [r3, #0]
701c09aa:	b90c      	cbnz	r4, 701c09b0 <console_putc+0x14>
701c09ac:	4628      	mov	r0, r5
701c09ae:	bdf8      	pop	{r3, r4, r5, r6, r7, pc}
701c09b0:	6862      	ldr	r2, [r4, #4]
701c09b2:	783b      	ldrb	r3, [r7, #0]
701c09b4:	4213      	tst	r3, r2
701c09b6:	d00d      	beq.n	701c09d4 <console_putc+0x38>
701c09b8:	68a3      	ldr	r3, [r4, #8]
701c09ba:	b15b      	cbz	r3, 701c09d4 <console_putc+0x38>
701c09bc:	2e0a      	cmp	r6, #10
701c09be:	d00b      	beq.n	701c09d8 <console_putc+0x3c>
701c09c0:	68a3      	ldr	r3, [r4, #8]
701c09c2:	4621      	mov	r1, r4
701c09c4:	4630      	mov	r0, r6
701c09c6:	4798      	blx	r3
701c09c8:	f115 0f80 	cmn.w	r5, #128	; 0x80
701c09cc:	d00c      	beq.n	701c09e8 <console_putc+0x4c>
701c09ce:	4285      	cmp	r5, r0
701c09d0:	bfa8      	it	ge
701c09d2:	4605      	movge	r5, r0
701c09d4:	6824      	ldr	r4, [r4, #0]
701c09d6:	e7e8      	b.n	701c09aa <console_putc+0xe>
701c09d8:	05d2      	lsls	r2, r2, #23
701c09da:	d5f1      	bpl.n	701c09c0 <console_putc+0x24>
701c09dc:	4621      	mov	r1, r4
701c09de:	200d      	movs	r0, #13
701c09e0:	4798      	blx	r3
701c09e2:	2800      	cmp	r0, #0
701c09e4:	daec      	bge.n	701c09c0 <console_putc+0x24>
701c09e6:	e7ef      	b.n	701c09c8 <console_putc+0x2c>
701c09e8:	4605      	mov	r5, r0
701c09ea:	e7f3      	b.n	701c09d4 <console_putc+0x38>
701c09ec:	701c5444 	.word	0x701c5444
701c09f0:	701c41bc 	.word	0x701c41bc

701c09f4 <console_flush>:
701c09f4:	4b0d      	ldr	r3, [pc, #52]	; (701c0a2c <console_flush+0x38>)
701c09f6:	b570      	push	{r4, r5, r6, lr}
701c09f8:	f06f 057f 	mvn.w	r5, #127	; 0x7f
701c09fc:	4e0c      	ldr	r6, [pc, #48]	; (701c0a30 <console_flush+0x3c>)
701c09fe:	681c      	ldr	r4, [r3, #0]
701c0a00:	b90c      	cbnz	r4, 701c0a06 <console_flush+0x12>
701c0a02:	4628      	mov	r0, r5
701c0a04:	bd70      	pop	{r4, r5, r6, pc}
701c0a06:	7832      	ldrb	r2, [r6, #0]
701c0a08:	6863      	ldr	r3, [r4, #4]
701c0a0a:	421a      	tst	r2, r3
701c0a0c:	d009      	beq.n	701c0a22 <console_flush+0x2e>
701c0a0e:	6923      	ldr	r3, [r4, #16]
701c0a10:	b13b      	cbz	r3, 701c0a22 <console_flush+0x2e>
701c0a12:	4620      	mov	r0, r4
701c0a14:	4798      	blx	r3
701c0a16:	f115 0f80 	cmn.w	r5, #128	; 0x80
701c0a1a:	d004      	beq.n	701c0a26 <console_flush+0x32>
701c0a1c:	4285      	cmp	r5, r0
701c0a1e:	bfa8      	it	ge
701c0a20:	4605      	movge	r5, r0
701c0a22:	6824      	ldr	r4, [r4, #0]
701c0a24:	e7ec      	b.n	701c0a00 <console_flush+0xc>
701c0a26:	4605      	mov	r5, r0
701c0a28:	e7fb      	b.n	701c0a22 <console_flush+0x2e>
701c0a2a:	bf00      	nop
701c0a2c:	701c5444 	.word	0x701c5444
701c0a30:	701c41bc 	.word	0x701c41bc

701c0a34 <plat_log_get_prefix>:
701c0a34:	2832      	cmp	r0, #50	; 0x32
701c0a36:	f04f 030a 	mov.w	r3, #10
701c0a3a:	bf28      	it	cs
701c0a3c:	2032      	movcs	r0, #50	; 0x32
701c0a3e:	280a      	cmp	r0, #10
701c0a40:	bf38      	it	cc
701c0a42:	200a      	movcc	r0, #10
701c0a44:	fbb0 f0f3 	udiv	r0, r0, r3
701c0a48:	4b02      	ldr	r3, [pc, #8]	; (701c0a54 <plat_log_get_prefix+0x20>)
701c0a4a:	3801      	subs	r0, #1
701c0a4c:	f853 0020 	ldr.w	r0, [r3, r0, lsl #2]
701c0a50:	4770      	bx	lr
701c0a52:	bf00      	nop
701c0a54:	701c3304 	.word	0x701c3304

701c0a58 <sheipa_configure_mmu_svc_mon>:
701c0a58:	e92d 47f3 	stmdb	sp!, {r0, r1, r4, r5, r6, r7, r8, r9, sl, lr}
701c0a5c:	2400      	movs	r4, #0
701c0a5e:	4615      	mov	r5, r2
701c0a60:	e9dd 8a0a 	ldrd	r8, sl, [sp, #40]	; 0x28
701c0a64:	461e      	mov	r6, r3
701c0a66:	e9dd 790c 	ldrd	r7, r9, [sp, #48]	; 0x30
701c0a6a:	4602      	mov	r2, r0
701c0a6c:	230a      	movs	r3, #10
701c0a6e:	9300      	str	r3, [sp, #0]
701c0a70:	460b      	mov	r3, r1
701c0a72:	4621      	mov	r1, r4
701c0a74:	f000 f888 	bl	701c0b88 <mmap_add_region>
701c0a78:	462a      	mov	r2, r5
701c0a7a:	4628      	mov	r0, r5
701c0a7c:	4621      	mov	r1, r4
701c0a7e:	2302      	movs	r3, #2
701c0a80:	9300      	str	r3, [sp, #0]
701c0a82:	1b73      	subs	r3, r6, r5
701c0a84:	f000 f880 	bl	701c0b88 <mmap_add_region>
701c0a88:	4642      	mov	r2, r8
701c0a8a:	4640      	mov	r0, r8
701c0a8c:	4621      	mov	r1, r4
701c0a8e:	2322      	movs	r3, #34	; 0x22
701c0a90:	9300      	str	r3, [sp, #0]
701c0a92:	ebaa 0308 	sub.w	r3, sl, r8
701c0a96:	f000 f877 	bl	701c0b88 <mmap_add_region>
701c0a9a:	463a      	mov	r2, r7
701c0a9c:	4621      	mov	r1, r4
701c0a9e:	4638      	mov	r0, r7
701c0aa0:	2308      	movs	r3, #8
701c0aa2:	9300      	str	r3, [sp, #0]
701c0aa4:	eba9 0307 	sub.w	r3, r9, r7
701c0aa8:	f000 f86e 	bl	701c0b88 <mmap_add_region>
701c0aac:	4805      	ldr	r0, [pc, #20]	; (701c0ac4 <sheipa_configure_mmu_svc_mon+0x6c>)
701c0aae:	f000 f87f 	bl	701c0bb0 <mmap_add>
701c0ab2:	f000 f883 	bl	701c0bbc <init_xlat_tables>
701c0ab6:	4620      	mov	r0, r4
701c0ab8:	b002      	add	sp, #8
701c0aba:	e8bd 47f0 	ldmia.w	sp!, {r4, r5, r6, r7, r8, r9, sl, lr}
701c0abe:	f000 b895 	b.w	701c0bec <enable_mmu_svc_mon>
701c0ac2:	bf00      	nop
701c0ac4:	701c3000 	.word	0x701c3000

701c0ac8 <sheipa_console_init>:
701c0ac8:	b510      	push	{r4, lr}
701c0aca:	4c06      	ldr	r4, [pc, #24]	; (701c0ae4 <sheipa_console_init+0x1c>)
701c0acc:	4906      	ldr	r1, [pc, #24]	; (701c0ae8 <sheipa_console_init+0x20>)
701c0ace:	4623      	mov	r3, r4
701c0ad0:	4a06      	ldr	r2, [pc, #24]	; (701c0aec <sheipa_console_init+0x24>)
701c0ad2:	4807      	ldr	r0, [pc, #28]	; (701c0af0 <sheipa_console_init+0x28>)
701c0ad4:	f000 ec42 	blx	701c135c <console_core_register>
701c0ad8:	4620      	mov	r0, r4
701c0ada:	2103      	movs	r1, #3
701c0adc:	e8bd 4010 	ldmia.w	sp!, {r4, lr}
701c0ae0:	f001 b83d 	b.w	701c1b5e <console_set_scope>
701c0ae4:	701c5448 	.word	0x701c5448
701c0ae8:	017d7840 	.word	0x017d7840
701c0aec:	0016e360 	.word	0x0016e360
701c0af0:	4200c000 	.word	0x4200c000

701c0af4 <setup_mmu_cfg>:
701c0af4:	b5f8      	push	{r3, r4, r5, r6, r7, lr}
701c0af6:	460f      	mov	r7, r1
701c0af8:	4616      	mov	r6, r2
701c0afa:	e9dd 1208 	ldrd	r1, r2, [sp, #32]
701c0afe:	4604      	mov	r4, r0
701c0b00:	2a01      	cmp	r2, #1
701c0b02:	d10d      	bne.n	701c0b20 <setup_mmu_cfg+0x2c>
701c0b04:	f3ef 8200 	mrs	r2, CPSR
701c0b08:	f002 021f 	and.w	r2, r2, #31
701c0b0c:	2a13      	cmp	r2, #19
701c0b0e:	d032      	beq.n	701c0b76 <setup_mmu_cfg+0x82>
701c0b10:	f3ef 8200 	mrs	r2, CPSR
701c0b14:	f002 021f 	and.w	r2, r2, #31
701c0b18:	2a16      	cmp	r2, #22
701c0b1a:	d02c      	beq.n	701c0b76 <setup_mmu_cfg+0x82>
701c0b1c:	f001 fa7a 	bl	701c2014 <__assert>
701c0b20:	2a02      	cmp	r2, #2
701c0b22:	d1fb      	bne.n	701c0b1c <setup_mmu_cfg+0x28>
701c0b24:	f3ef 8200 	mrs	r2, CPSR
701c0b28:	f002 021f 	and.w	r2, r2, #31
701c0b2c:	2a1a      	cmp	r2, #26
701c0b2e:	d1f5      	bne.n	701c0b1c <setup_mmu_cfg+0x28>
701c0b30:	4d12      	ldr	r5, [pc, #72]	; (701c0b7c <setup_mmu_cfg+0x88>)
701c0b32:	1c4a      	adds	r2, r1, #1
701c0b34:	d00a      	beq.n	701c0b4c <setup_mmu_cfg+0x58>
701c0b36:	1c48      	adds	r0, r1, #1
701c0b38:	f1b0 7f00 	cmp.w	r0, #33554432	; 0x2000000
701c0b3c:	d3ee      	bcc.n	701c0b1c <setup_mmu_cfg+0x28>
701c0b3e:	4001      	ands	r1, r0
701c0b40:	d1ec      	bne.n	701c0b1c <setup_mmu_cfg+0x28>
701c0b42:	f001 f81d 	bl	701c1b80 <__ctzdi2>
701c0b46:	f1c0 0020 	rsb	r0, r0, #32
701c0b4a:	4305      	orrs	r5, r0
701c0b4c:	07bb      	lsls	r3, r7, #30
701c0b4e:	d401      	bmi.n	701c0b54 <setup_mmu_cfg+0x60>
701c0b50:	f445 5554 	orr.w	r5, r5, #13568	; 0x3500
701c0b54:	ee10 3fd2 	mrc	15, 0, r3, cr0, cr2, {6}
701c0b58:	f413 4f70 	tst.w	r3, #61440	; 0xf000
701c0b5c:	d001      	beq.n	701c0b62 <setup_mmu_cfg+0x6e>
701c0b5e:	f046 0601 	orr.w	r6, r6, #1
701c0b62:	4807      	ldr	r0, [pc, #28]	; (701c0b80 <setup_mmu_cfg+0x8c>)
701c0b64:	2300      	movs	r3, #0
701c0b66:	2100      	movs	r1, #0
701c0b68:	e9c4 5302 	strd	r5, r3, [r4, #8]
701c0b6c:	e9c4 0100 	strd	r0, r1, [r4]
701c0b70:	e9c4 6304 	strd	r6, r3, [r4, #16]
701c0b74:	bdf8      	pop	{r3, r4, r5, r6, r7, pc}
701c0b76:	4d03      	ldr	r5, [pc, #12]	; (701c0b84 <setup_mmu_cfg+0x90>)
701c0b78:	e7db      	b.n	701c0b32 <setup_mmu_cfg+0x3e>
701c0b7a:	bf00      	nop
701c0b7c:	80803500 	.word	0x80803500
701c0b80:	004404ff 	.word	0x004404ff
701c0b84:	80800000 	.word	0x80800000

701c0b88 <mmap_add_region>:
701c0b88:	b57f      	push	{r0, r1, r2, r3, r4, r5, r6, lr}
701c0b8a:	e9cd 0100 	strd	r0, r1, [sp]
701c0b8e:	4669      	mov	r1, sp
701c0b90:	e9cd 2302 	strd	r2, r3, [sp, #8]
701c0b94:	4805      	ldr	r0, [pc, #20]	; (701c0bac <mmap_add_region+0x24>)
701c0b96:	9b08      	ldr	r3, [sp, #32]
701c0b98:	9304      	str	r3, [sp, #16]
701c0b9a:	f04f 4380 	mov.w	r3, #1073741824	; 0x40000000
701c0b9e:	9305      	str	r3, [sp, #20]
701c0ba0:	f000 f83e 	bl	701c0c20 <mmap_add_region_ctx>
701c0ba4:	b007      	add	sp, #28
701c0ba6:	f85d fb04 	ldr.w	pc, [sp], #4
701c0baa:	bf00      	nop
701c0bac:	701c4000 	.word	0x701c4000

701c0bb0 <mmap_add>:
701c0bb0:	4601      	mov	r1, r0
701c0bb2:	4801      	ldr	r0, [pc, #4]	; (701c0bb8 <mmap_add+0x8>)
701c0bb4:	f001 ba20 	b.w	701c1ff8 <mmap_add_ctx>
701c0bb8:	701c4000 	.word	0x701c4000

701c0bbc <init_xlat_tables>:
701c0bbc:	b510      	push	{r4, lr}
701c0bbe:	4c0a      	ldr	r4, [pc, #40]	; (701c0be8 <init_xlat_tables+0x2c>)
701c0bc0:	6be3      	ldr	r3, [r4, #60]	; 0x3c
701c0bc2:	3301      	adds	r3, #1
701c0bc4:	d001      	beq.n	701c0bca <init_xlat_tables+0xe>
701c0bc6:	f001 fa25 	bl	701c2014 <__assert>
701c0bca:	f001 f8cb 	bl	701c1d64 <xlat_arch_current_el>
701c0bce:	2801      	cmp	r0, #1
701c0bd0:	d105      	bne.n	701c0bde <init_xlat_tables+0x22>
701c0bd2:	63e0      	str	r0, [r4, #60]	; 0x3c
701c0bd4:	e8bd 4010 	ldmia.w	sp!, {r4, lr}
701c0bd8:	4803      	ldr	r0, [pc, #12]	; (701c0be8 <init_xlat_tables+0x2c>)
701c0bda:	f000 b913 	b.w	701c0e04 <init_xlat_tables_ctx>
701c0bde:	2802      	cmp	r0, #2
701c0be0:	d0f7      	beq.n	701c0bd2 <init_xlat_tables+0x16>
701c0be2:	2803      	cmp	r0, #3
701c0be4:	d0f5      	beq.n	701c0bd2 <init_xlat_tables+0x16>
701c0be6:	e7ee      	b.n	701c0bc6 <init_xlat_tables+0xa>
701c0be8:	701c4000 	.word	0x701c4000

701c0bec <enable_mmu_svc_mon>:
701c0bec:	b51f      	push	{r0, r1, r2, r3, r4, lr}
701c0bee:	2201      	movs	r2, #1
701c0bf0:	4b09      	ldr	r3, [pc, #36]	; (701c0c18 <enable_mmu_svc_mon+0x2c>)
701c0bf2:	9203      	str	r2, [sp, #12]
701c0bf4:	4604      	mov	r4, r0
701c0bf6:	689a      	ldr	r2, [r3, #8]
701c0bf8:	9202      	str	r2, [sp, #8]
701c0bfa:	e9d3 010a 	ldrd	r0, r1, [r3, #40]	; 0x28
701c0bfe:	e9cd 0100 	strd	r0, r1, [sp]
701c0c02:	4806      	ldr	r0, [pc, #24]	; (701c0c1c <enable_mmu_svc_mon+0x30>)
701c0c04:	4621      	mov	r1, r4
701c0c06:	6a1a      	ldr	r2, [r3, #32]
701c0c08:	f7ff ff74 	bl	701c0af4 <setup_mmu_cfg>
701c0c0c:	4620      	mov	r0, r4
701c0c0e:	b004      	add	sp, #16
701c0c10:	e8bd 4010 	ldmia.w	sp!, {r4, lr}
701c0c14:	f001 baa8 	b.w	701c2168 <__enable_mmu_direct_svc_mon_from_thumb>
701c0c18:	701c4000 	.word	0x701c4000
701c0c1c:	701c5210 	.word	0x701c5210

701c0c20 <mmap_add_region_ctx>:
701c0c20:	e92d 4ff0 	stmdb	sp!, {r4, r5, r6, r7, r8, r9, sl, fp, lr}
701c0c24:	4605      	mov	r5, r0
701c0c26:	f8d1 800c 	ldr.w	r8, [r1, #12]
701c0c2a:	b087      	sub	sp, #28
701c0c2c:	460c      	mov	r4, r1
701c0c2e:	f1b8 0f00 	cmp.w	r8, #0
701c0c32:	f000 80dc 	beq.w	701c0dee <mmap_add_region_ctx+0x1ce>
701c0c36:	f890 3038 	ldrb.w	r3, [r0, #56]	; 0x38
701c0c3a:	b10b      	cbz	r3, 701c0c40 <mmap_add_region_ctx+0x20>
701c0c3c:	f001 f9ea 	bl	701c2014 <__assert>
701c0c40:	e9d1 b900 	ldrd	fp, r9, [r1]
701c0c44:	694a      	ldr	r2, [r1, #20]
701c0c46:	f3cb 030b 	ubfx	r3, fp, #0, #12
701c0c4a:	2b00      	cmp	r3, #0
701c0c4c:	f040 8097 	bne.w	701c0d7e <mmap_add_region_ctx+0x15e>
701c0c50:	688b      	ldr	r3, [r1, #8]
701c0c52:	ea48 0103 	orr.w	r1, r8, r3
701c0c56:	f3c1 010b 	ubfx	r1, r1, #0, #12
701c0c5a:	2900      	cmp	r1, #0
701c0c5c:	f040 808f 	bne.w	701c0d7e <mmap_add_region_ctx+0x15e>
701c0c60:	f1b2 4f80 	cmp.w	r2, #1073741824	; 0x40000000
701c0c64:	d006      	beq.n	701c0c74 <mmap_add_region_ctx+0x54>
701c0c66:	f5b2 1f00 	cmp.w	r2, #2097152	; 0x200000
701c0c6a:	d003      	beq.n	701c0c74 <mmap_add_region_ctx+0x54>
701c0c6c:	f5b2 5f80 	cmp.w	r2, #4096	; 0x1000
701c0c70:	f040 8085 	bne.w	701c0d7e <mmap_add_region_ctx+0x15e>
701c0c74:	f11b 32ff 	adds.w	r2, fp, #4294967295	; 0xffffffff
701c0c78:	f149 37ff 	adc.w	r7, r9, #4294967295	; 0xffffffff
701c0c7c:	eb12 0208 	adds.w	r2, r2, r8
701c0c80:	9201      	str	r2, [sp, #4]
701c0c82:	f147 0200 	adc.w	r2, r7, #0
701c0c86:	9202      	str	r2, [sp, #8]
701c0c88:	9a01      	ldr	r2, [sp, #4]
701c0c8a:	455a      	cmp	r2, fp
701c0c8c:	9a02      	ldr	r2, [sp, #8]
701c0c8e:	eb72 0209 	sbcs.w	r2, r2, r9
701c0c92:	d37a      	bcc.n	701c0d8a <mmap_add_region_ctx+0x16a>
701c0c94:	eb08 0203 	add.w	r2, r8, r3
701c0c98:	9205      	str	r2, [sp, #20]
701c0c9a:	1e56      	subs	r6, r2, #1
701c0c9c:	42b3      	cmp	r3, r6
701c0c9e:	d874      	bhi.n	701c0d8a <mmap_add_region_ctx+0x16a>
701c0ca0:	68aa      	ldr	r2, [r5, #8]
701c0ca2:	4296      	cmp	r6, r2
701c0ca4:	d871      	bhi.n	701c0d8a <mmap_add_region_ctx+0x16a>
701c0ca6:	e9d5 1200 	ldrd	r1, r2, [r5]
701c0caa:	9801      	ldr	r0, [sp, #4]
701c0cac:	4281      	cmp	r1, r0
701c0cae:	9902      	ldr	r1, [sp, #8]
701c0cb0:	418a      	sbcs	r2, r1
701c0cb2:	d36a      	bcc.n	701c0d8a <mmap_add_region_ctx+0x16a>
701c0cb4:	6929      	ldr	r1, [r5, #16]
701c0cb6:	2018      	movs	r0, #24
701c0cb8:	68ea      	ldr	r2, [r5, #12]
701c0cba:	4341      	muls	r1, r0
701c0cbc:	9104      	str	r1, [sp, #16]
701c0cbe:	1851      	adds	r1, r2, r1
701c0cc0:	f851 1c0c 	ldr.w	r1, [r1, #-12]
701c0cc4:	2900      	cmp	r1, #0
701c0cc6:	d163      	bne.n	701c0d90 <mmap_add_region_ctx+0x170>
701c0cc8:	eb02 0c00 	add.w	ip, r2, r0
701c0ccc:	f85c 1c0c 	ldr.w	r1, [ip, #-12]
701c0cd0:	9103      	str	r1, [sp, #12]
701c0cd2:	b9a9      	cbnz	r1, 701c0d00 <mmap_add_region_ctx+0xe0>
701c0cd4:	4691      	mov	r9, r2
701c0cd6:	e9d9 3102 	ldrd	r3, r1, [r9, #8]
701c0cda:	440b      	add	r3, r1
701c0cdc:	3b01      	subs	r3, #1
701c0cde:	42b3      	cmp	r3, r6
701c0ce0:	d201      	bcs.n	701c0ce6 <mmap_add_region_ctx+0xc6>
701c0ce2:	2900      	cmp	r1, #0
701c0ce4:	d157      	bne.n	701c0d96 <mmap_add_region_ctx+0x176>
701c0ce6:	e9d9 3102 	ldrd	r3, r1, [r9, #8]
701c0cea:	9805      	ldr	r0, [sp, #20]
701c0cec:	440b      	add	r3, r1
701c0cee:	4298      	cmp	r0, r3
701c0cf0:	d102      	bne.n	701c0cf8 <mmap_add_region_ctx+0xd8>
701c0cf2:	b109      	cbz	r1, 701c0cf8 <mmap_add_region_ctx+0xd8>
701c0cf4:	4588      	cmp	r8, r1
701c0cf6:	d851      	bhi.n	701c0d9c <mmap_add_region_ctx+0x17c>
701c0cf8:	9b04      	ldr	r3, [sp, #16]
701c0cfa:	4413      	add	r3, r2
701c0cfc:	4698      	mov	r8, r3
701c0cfe:	e051      	b.n	701c0da4 <mmap_add_region_ctx+0x184>
701c0d00:	f85c ec10 	ldr.w	lr, [ip, #-16]
701c0d04:	9903      	ldr	r1, [sp, #12]
701c0d06:	4573      	cmp	r3, lr
701c0d08:	eb0e 0001 	add.w	r0, lr, r1
701c0d0c:	f100 30ff 	add.w	r0, r0, #4294967295	; 0xffffffff
701c0d10:	d31d      	bcc.n	701c0d4e <mmap_add_region_ctx+0x12e>
701c0d12:	4286      	cmp	r6, r0
701c0d14:	d91d      	bls.n	701c0d52 <mmap_add_region_ctx+0x132>
701c0d16:	4573      	cmp	r3, lr
701c0d18:	d91b      	bls.n	701c0d52 <mmap_add_region_ctx+0x132>
701c0d1a:	e95c 1a06 	ldrd	r1, sl, [ip, #-24]
701c0d1e:	9f01      	ldr	r7, [sp, #4]
701c0d20:	428f      	cmp	r7, r1
701c0d22:	9f02      	ldr	r7, [sp, #8]
701c0d24:	eb77 070a 	sbcs.w	r7, r7, sl
701c0d28:	d364      	bcc.n	701c0df4 <mmap_add_region_ctx+0x1d4>
701c0d2a:	9f03      	ldr	r7, [sp, #12]
701c0d2c:	3901      	subs	r1, #1
701c0d2e:	f14a 3aff 	adc.w	sl, sl, #4294967295	; 0xffffffff
701c0d32:	19c9      	adds	r1, r1, r7
701c0d34:	f14a 0a00 	adc.w	sl, sl, #0
701c0d38:	4576      	cmp	r6, lr
701c0d3a:	d301      	bcc.n	701c0d40 <mmap_add_region_ctx+0x120>
701c0d3c:	4283      	cmp	r3, r0
701c0d3e:	d91b      	bls.n	701c0d78 <mmap_add_region_ctx+0x158>
701c0d40:	4559      	cmp	r1, fp
701c0d42:	eb7a 0109 	sbcs.w	r1, sl, r9
701c0d46:	d217      	bcs.n	701c0d78 <mmap_add_region_ctx+0x158>
701c0d48:	f10c 0c18 	add.w	ip, ip, #24
701c0d4c:	e7be      	b.n	701c0ccc <mmap_add_region_ctx+0xac>
701c0d4e:	4286      	cmp	r6, r0
701c0d50:	d3e3      	bcc.n	701c0d1a <mmap_add_region_ctx+0xfa>
701c0d52:	e95c 1006 	ldrd	r1, r0, [ip, #-24]
701c0d56:	ebbe 0101 	subs.w	r1, lr, r1
701c0d5a:	eb60 0040 	sbc.w	r0, r0, r0, lsl #1
701c0d5e:	ebb3 070b 	subs.w	r7, r3, fp
701c0d62:	eb69 0a49 	sbc.w	sl, r9, r9, lsl #1
701c0d66:	4550      	cmp	r0, sl
701c0d68:	bf08      	it	eq
701c0d6a:	42b9      	cmpeq	r1, r7
701c0d6c:	d104      	bne.n	701c0d78 <mmap_add_region_ctx+0x158>
701c0d6e:	4573      	cmp	r3, lr
701c0d70:	d1ea      	bne.n	701c0d48 <mmap_add_region_ctx+0x128>
701c0d72:	9903      	ldr	r1, [sp, #12]
701c0d74:	4588      	cmp	r8, r1
701c0d76:	d1e7      	bne.n	701c0d48 <mmap_add_region_ctx+0x128>
701c0d78:	f04f 31ff 	mov.w	r1, #4294967295	; 0xffffffff
701c0d7c:	e001      	b.n	701c0d82 <mmap_add_region_ctx+0x162>
701c0d7e:	f06f 0115 	mvn.w	r1, #21
701c0d82:	481f      	ldr	r0, [pc, #124]	; (701c0e00 <mmap_add_region_ctx+0x1e0>)
701c0d84:	f7ff fdb2 	bl	701c08ec <tf_log>
701c0d88:	e758      	b.n	701c0c3c <mmap_add_region_ctx+0x1c>
701c0d8a:	f06f 0121 	mvn.w	r1, #33	; 0x21
701c0d8e:	e7f8      	b.n	701c0d82 <mmap_add_region_ctx+0x162>
701c0d90:	f06f 010b 	mvn.w	r1, #11
701c0d94:	e7f5      	b.n	701c0d82 <mmap_add_region_ctx+0x162>
701c0d96:	f109 0918 	add.w	r9, r9, #24
701c0d9a:	e79c      	b.n	701c0cd6 <mmap_add_region_ctx+0xb6>
701c0d9c:	f109 0918 	add.w	r9, r9, #24
701c0da0:	e7a1      	b.n	701c0ce6 <mmap_add_region_ctx+0xc6>
701c0da2:	3218      	adds	r2, #24
701c0da4:	68d3      	ldr	r3, [r2, #12]
701c0da6:	b113      	cbz	r3, 701c0dae <mmap_add_region_ctx+0x18e>
701c0da8:	4542      	cmp	r2, r8
701c0daa:	d3fa      	bcc.n	701c0da2 <mmap_add_region_ctx+0x182>
701c0dac:	e746      	b.n	701c0c3c <mmap_add_region_ctx+0x1c>
701c0dae:	eba2 0209 	sub.w	r2, r2, r9
701c0db2:	4649      	mov	r1, r9
701c0db4:	f109 0018 	add.w	r0, r9, #24
701c0db8:	f001 f94a 	bl	701c2050 <memmove>
701c0dbc:	f8d8 300c 	ldr.w	r3, [r8, #12]
701c0dc0:	2b00      	cmp	r3, #0
701c0dc2:	f47f af3b 	bne.w	701c0c3c <mmap_add_region_ctx+0x1c>
701c0dc6:	cc0f      	ldmia	r4!, {r0, r1, r2, r3}
701c0dc8:	e8a9 000f 	stmia.w	r9!, {r0, r1, r2, r3}
701c0dcc:	e9d5 230a 	ldrd	r2, r3, [r5, #40]	; 0x28
701c0dd0:	e894 0003 	ldmia.w	r4, {r0, r1}
701c0dd4:	e889 0003 	stmia.w	r9, {r0, r1}
701c0dd8:	9901      	ldr	r1, [sp, #4]
701c0dda:	428a      	cmp	r2, r1
701c0ddc:	9a02      	ldr	r2, [sp, #8]
701c0dde:	4193      	sbcs	r3, r2
701c0de0:	d201      	bcs.n	701c0de6 <mmap_add_region_ctx+0x1c6>
701c0de2:	62a9      	str	r1, [r5, #40]	; 0x28
701c0de4:	62ea      	str	r2, [r5, #44]	; 0x2c
701c0de6:	6b2b      	ldr	r3, [r5, #48]	; 0x30
701c0de8:	42b3      	cmp	r3, r6
701c0dea:	d200      	bcs.n	701c0dee <mmap_add_region_ctx+0x1ce>
701c0dec:	632e      	str	r6, [r5, #48]	; 0x30
701c0dee:	b007      	add	sp, #28
701c0df0:	e8bd 8ff0 	ldmia.w	sp!, {r4, r5, r6, r7, r8, r9, sl, fp, pc}
701c0df4:	4576      	cmp	r6, lr
701c0df6:	d3a7      	bcc.n	701c0d48 <mmap_add_region_ctx+0x128>
701c0df8:	4283      	cmp	r3, r0
701c0dfa:	d8a5      	bhi.n	701c0d48 <mmap_add_region_ctx+0x128>
701c0dfc:	e7bc      	b.n	701c0d78 <mmap_add_region_ctx+0x158>
701c0dfe:	bf00      	nop
701c0e00:	701c3483 	.word	0x701c3483

701c0e04 <init_xlat_tables_ctx>:
701c0e04:	b573      	push	{r0, r1, r4, r5, r6, lr}
701c0e06:	4604      	mov	r4, r0
701c0e08:	b908      	cbnz	r0, 701c0e0e <init_xlat_tables_ctx+0xa>
701c0e0a:	f001 f903 	bl	701c2014 <__assert>
701c0e0e:	f890 3038 	ldrb.w	r3, [r0, #56]	; 0x38
701c0e12:	2b00      	cmp	r3, #0
701c0e14:	d1f9      	bne.n	701c0e0a <init_xlat_tables_ctx+0x6>
701c0e16:	6bc3      	ldr	r3, [r0, #60]	; 0x3c
701c0e18:	3b01      	subs	r3, #1
701c0e1a:	2b02      	cmp	r3, #2
701c0e1c:	d8f5      	bhi.n	701c0e0a <init_xlat_tables_ctx+0x6>
701c0e1e:	f000 ffba 	bl	701c1d96 <is_mmu_enabled_ctx>
701c0e22:	2800      	cmp	r0, #0
701c0e24:	d1f1      	bne.n	701c0e0a <init_xlat_tables_ctx+0x6>
701c0e26:	e9d4 6502 	ldrd	r6, r5, [r4, #8]
701c0e2a:	f000 ff7b 	bl	701c1d24 <xlat_get_min_virt_addr_space_size>
701c0e2e:	3801      	subs	r0, #1
701c0e30:	4286      	cmp	r6, r0
701c0e32:	d3ea      	bcc.n	701c0e0a <init_xlat_tables_ctx+0x6>
701c0e34:	68a3      	ldr	r3, [r4, #8]
701c0e36:	1c5e      	adds	r6, r3, #1
701c0e38:	401e      	ands	r6, r3
701c0e3a:	d1e6      	bne.n	701c0e0a <init_xlat_tables_ctx+0x6>
701c0e3c:	4628      	mov	r0, r5
701c0e3e:	f001 f8e7 	bl	701c2010 <xlat_mmap_print>
701c0e42:	6a62      	ldr	r2, [r4, #36]	; 0x24
701c0e44:	efc0 0010 	vmov.i32	d16, #0	; 0x00000000
701c0e48:	42b2      	cmp	r2, r6
701c0e4a:	d124      	bne.n	701c0e96 <init_xlat_tables_ctx+0x92>
701c0e4c:	69a0      	ldr	r0, [r4, #24]
701c0e4e:	efc0 0010 	vmov.i32	d16, #0	; 0x00000000
701c0e52:	2200      	movs	r2, #0
701c0e54:	4290      	cmp	r0, r2
701c0e56:	dc25      	bgt.n	701c0ea4 <init_xlat_tables_ctx+0xa0>
701c0e58:	68eb      	ldr	r3, [r5, #12]
701c0e5a:	bb8b      	cbnz	r3, 701c0ec0 <init_xlat_tables_ctx+0xbc>
701c0e5c:	e9d4 6500 	ldrd	r6, r5, [r4]
701c0e60:	f000 ff5c 	bl	701c1d1c <xlat_arch_get_max_supported_pa>
701c0e64:	42b0      	cmp	r0, r6
701c0e66:	eb71 0305 	sbcs.w	r3, r1, r5
701c0e6a:	d3ce      	bcc.n	701c0e0a <init_xlat_tables_ctx+0x6>
701c0e6c:	6b22      	ldr	r2, [r4, #48]	; 0x30
701c0e6e:	68a3      	ldr	r3, [r4, #8]
701c0e70:	429a      	cmp	r2, r3
701c0e72:	d8ca      	bhi.n	701c0e0a <init_xlat_tables_ctx+0x6>
701c0e74:	e9d4 130a 	ldrd	r1, r3, [r4, #40]	; 0x28
701c0e78:	e9d4 0200 	ldrd	r0, r2, [r4]
701c0e7c:	4288      	cmp	r0, r1
701c0e7e:	eb72 0303 	sbcs.w	r3, r2, r3
701c0e82:	d3c2      	bcc.n	701c0e0a <init_xlat_tables_ctx+0x6>
701c0e84:	2301      	movs	r3, #1
701c0e86:	4620      	mov	r0, r4
701c0e88:	f884 3038 	strb.w	r3, [r4, #56]	; 0x38
701c0e8c:	b002      	add	sp, #8
701c0e8e:	e8bd 4070 	ldmia.w	sp!, {r4, r5, r6, lr}
701c0e92:	f001 b8be 	b.w	701c2012 <xlat_tables_print>
701c0e96:	6a23      	ldr	r3, [r4, #32]
701c0e98:	eb03 03c6 	add.w	r3, r3, r6, lsl #3
701c0e9c:	3601      	adds	r6, #1
701c0e9e:	edc3 0b00 	vstr	d16, [r3]
701c0ea2:	e7d1      	b.n	701c0e48 <init_xlat_tables_ctx+0x44>
701c0ea4:	6963      	ldr	r3, [r4, #20]
701c0ea6:	eb03 3302 	add.w	r3, r3, r2, lsl #12
701c0eaa:	f1a3 0108 	sub.w	r1, r3, #8
701c0eae:	f603 73f8 	addw	r3, r3, #4088	; 0xff8
701c0eb2:	3108      	adds	r1, #8
701c0eb4:	edc1 0b00 	vstr	d16, [r1]
701c0eb8:	4299      	cmp	r1, r3
701c0eba:	d1fa      	bne.n	701c0eb2 <init_xlat_tables_ctx+0xae>
701c0ebc:	3201      	adds	r2, #1
701c0ebe:	e7c9      	b.n	701c0e54 <init_xlat_tables_ctx+0x50>
701c0ec0:	6b63      	ldr	r3, [r4, #52]	; 0x34
701c0ec2:	2200      	movs	r2, #0
701c0ec4:	9301      	str	r3, [sp, #4]
701c0ec6:	4629      	mov	r1, r5
701c0ec8:	4620      	mov	r0, r4
701c0eca:	6a63      	ldr	r3, [r4, #36]	; 0x24
701c0ecc:	9300      	str	r3, [sp, #0]
701c0ece:	6a23      	ldr	r3, [r4, #32]
701c0ed0:	f000 ffdd 	bl	701c1e8e <xlat_tables_map_region>
701c0ed4:	6a61      	ldr	r1, [r4, #36]	; 0x24
701c0ed6:	4606      	mov	r6, r0
701c0ed8:	6a20      	ldr	r0, [r4, #32]
701c0eda:	00c9      	lsls	r1, r1, #3
701c0edc:	f000 ff73 	bl	701c1dc6 <xlat_clean_dcache_range>
701c0ee0:	e9d5 1202 	ldrd	r1, r2, [r5, #8]
701c0ee4:	188b      	adds	r3, r1, r2
701c0ee6:	3b01      	subs	r3, #1
701c0ee8:	42b3      	cmp	r3, r6
701c0eea:	d00b      	beq.n	701c0f04 <init_xlat_tables_ctx+0x100>
701c0eec:	692b      	ldr	r3, [r5, #16]
701c0eee:	e9cd 2300 	strd	r2, r3, [sp]
701c0ef2:	4805      	ldr	r0, [pc, #20]	; (701c0f08 <init_xlat_tables_ctx+0x104>)
701c0ef4:	e9d5 2300 	ldrd	r2, r3, [r5]
701c0ef8:	f7ff fcf8 	bl	701c08ec <tf_log>
701c0efc:	f7ff fd7a 	bl	701c09f4 <console_flush>
701c0f00:	f000 e810 	blx	701c0f24 <do_panic>
701c0f04:	3518      	adds	r5, #24
701c0f06:	e7a7      	b.n	701c0e58 <init_xlat_tables_ctx+0x54>
701c0f08:	701c34ae 	.word	0x701c34ae

701c0f0c <semihosting_call>:
701c0f0c:	ef123456 	svc	0x00123456
701c0f10:	e12fff1e 	bx	lr

701c0f14 <plat_set_my_stack>:
701c0f14:	e59f0004 	ldr	r0, [pc, #4]	; 701c0f20 <plat_set_my_stack+0xc>
701c0f18:	e1a0d000 	mov	sp, r0
701c0f1c:	e12fff1e 	bx	lr
701c0f20:	701c51c0 	.word	0x701c51c0

701c0f24 <do_panic>:
701c0f24:	e24e6004 	sub	r6, lr, #4
701c0f28:	eb0000ec 	bl	701c12e0 <plat_crash_console_init>
701c0f2c:	e3500000 	cmp	r0, #0
701c0f30:	0a000006 	beq	701c0f50 <do_panic+0x2c>
701c0f34:	e59f401c 	ldr	r4, [pc, #28]	; 701c0f58 <do_panic+0x34>
701c0f38:	eb000034 	bl	701c1010 <asm_print_str>
701c0f3c:	e1a04006 	mov	r4, r6
701c0f40:	eb000039 	bl	701c102c <asm_print_hex>
701c0f44:	e59f4010 	ldr	r4, [pc, #16]	; 701c0f5c <do_panic+0x38>
701c0f48:	eb000030 	bl	701c1010 <asm_print_str>
701c0f4c:	eb0000ed 	bl	701c1308 <plat_crash_console_flush>
701c0f50:	e1a0e006 	mov	lr, r6
701c0f54:	ea0000ee 	b	701c1314 <plat_panic_handler>
701c0f58:	701c34fd 	.word	0x701c34fd
701c0f5c:	701c350e 	.word	0x701c350e

701c0f60 <report_exception>:
701c0f60:	e10f0000 	mrs	r0, CPSR
701c0f64:	e200001f 	and	r0, r0, #31
701c0f68:	eb000097 	bl	701c11cc <plat_report_exception>
701c0f6c:	eb0000e8 	bl	701c1314 <plat_panic_handler>
701c0f70:	e320f000 	nop	{0}

701c0f74 <report_prefetch_abort>:
701c0f74:	e1040300 	mrs	r0, LR_abt
701c0f78:	eb0000ac 	bl	701c1230 <plat_report_prefetch_abort>
701c0f7c:	eb0000e4 	bl	701c1314 <plat_panic_handler>
701c0f80:	e320f000 	nop	{0}

701c0f84 <report_data_abort>:
701c0f84:	e1040300 	mrs	r0, LR_abt
701c0f88:	eb0000be 	bl	701c1288 <plat_report_data_abort>
701c0f8c:	eb0000e0 	bl	701c1314 <plat_panic_handler>
701c0f90:	e320f000 	nop	{0}

701c0f94 <asm_assert>:
701c0f94:	e1a05000 	mov	r5, r0
701c0f98:	e1a06001 	mov	r6, r1
701c0f9c:	eb0000cf 	bl	701c12e0 <plat_crash_console_init>
701c0fa0:	e3500000 	cmp	r0, #0
701c0fa4:	0a000013 	beq	701c0ff8 <dec_print_loop+0x20>
701c0fa8:	e59f4050 	ldr	r4, [pc, #80]	; 701c1000 <dec_print_loop+0x28>
701c0fac:	eb000017 	bl	701c1010 <asm_print_str>
701c0fb0:	e1a04005 	mov	r4, r5
701c0fb4:	eb000015 	bl	701c1010 <asm_print_str>
701c0fb8:	e59f4044 	ldr	r4, [pc, #68]	; 701c1004 <dec_print_loop+0x2c>
701c0fbc:	eb000013 	bl	701c1010 <asm_print_str>
701c0fc0:	e59f4040 	ldr	r4, [pc, #64]	; 701c1008 <dec_print_loop+0x30>
701c0fc4:	e1160004 	tst	r6, r4
701c0fc8:	1a00000a 	bne	701c0ff8 <dec_print_loop+0x20>
701c0fcc:	e1a04006 	mov	r4, r6
701c0fd0:	e3a0600a 	mov	r6, #10
701c0fd4:	e59f5030 	ldr	r5, [pc, #48]	; 701c100c <dec_print_loop+0x34>

701c0fd8 <dec_print_loop>:
701c0fd8:	e730f514 	udiv	r0, r4, r5
701c0fdc:	e0644590 	mls	r4, r0, r5, r4
701c0fe0:	e2800030 	add	r0, r0, #48	; 0x30
701c0fe4:	eb0000c4 	bl	701c12fc <plat_crash_console_putc>
701c0fe8:	e735f615 	udiv	r5, r5, r6
701c0fec:	e3550000 	cmp	r5, #0
701c0ff0:	1afffff8 	bne	701c0fd8 <dec_print_loop>
701c0ff4:	eb0000c3 	bl	701c1308 <plat_crash_console_flush>
701c0ff8:	eb0000c5 	bl	701c1314 <plat_panic_handler>
701c0ffc:	e320f000 	nop	{0}
701c1000:	701c3511 	.word	0x701c3511
701c1004:	701c351f 	.word	0x701c351f
701c1008:	ffff0000 	.word	0xffff0000
701c100c:	00002710 	.word	0x00002710

701c1010 <asm_print_str>:
701c1010:	e1a0300e 	mov	r3, lr
701c1014:	e4d40001 	ldrb	r0, [r4], #1
701c1018:	e3500000 	cmp	r0, #0
701c101c:	0a000001 	beq	701c1028 <asm_print_str+0x18>
701c1020:	eb0000b5 	bl	701c12fc <plat_crash_console_putc>
701c1024:	eafffffa 	b	701c1014 <asm_print_str+0x4>
701c1028:	e12fff13 	bx	r3

701c102c <asm_print_hex>:
701c102c:	e1a0300e 	mov	r3, lr
701c1030:	e3a05020 	mov	r5, #32
701c1034:	e2455004 	sub	r5, r5, #4
701c1038:	e1a00534 	lsr	r0, r4, r5
701c103c:	e200000f 	and	r0, r0, #15
701c1040:	e350000a 	cmp	r0, #10
701c1044:	3a000000 	bcc	701c104c <asm_print_hex+0x20>
701c1048:	e2800027 	add	r0, r0, #39	; 0x27
701c104c:	e2800030 	add	r0, r0, #48	; 0x30
701c1050:	eb0000a9 	bl	701c12fc <plat_crash_console_putc>
701c1054:	e3550000 	cmp	r5, #0
701c1058:	1afffff5 	bne	701c1034 <asm_print_hex+0x8>
701c105c:	e12fff13 	bx	r3

701c1060 <flush_dcache_range>:
701c1060:	e3510000 	cmp	r1, #0
701c1064:	0a00000b 	beq	701c1098 <exit_loop_cimvac>
701c1068:	ee103f30 	mrc	15, 0, r3, cr0, cr0, {1}
701c106c:	e7e33853 	ubfx	r3, r3, #16, #4
701c1070:	e3a02004 	mov	r2, #4
701c1074:	e1a02312 	lsl	r2, r2, r3
701c1078:	e0801001 	add	r1, r0, r1
701c107c:	e2423001 	sub	r3, r2, #1
701c1080:	e1c00003 	bic	r0, r0, r3

701c1084 <loop_cimvac>:
701c1084:	ee070f3e 	mcr	15, 0, r0, cr7, cr14, {1}
701c1088:	e0800002 	add	r0, r0, r2
701c108c:	e1500001 	cmp	r0, r1
701c1090:	3afffffb 	bcc	701c1084 <loop_cimvac>
701c1094:	f57ff04f 	dsb	sy

701c1098 <exit_loop_cimvac>:
701c1098:	e12fff1e 	bx	lr

701c109c <clean_dcache_range>:
701c109c:	e3510000 	cmp	r1, #0
701c10a0:	0a00000b 	beq	701c10d4 <exit_loop_cmvac>
701c10a4:	ee103f30 	mrc	15, 0, r3, cr0, cr0, {1}
701c10a8:	e7e33853 	ubfx	r3, r3, #16, #4
701c10ac:	e3a02004 	mov	r2, #4
701c10b0:	e1a02312 	lsl	r2, r2, r3
701c10b4:	e0801001 	add	r1, r0, r1
701c10b8:	e2423001 	sub	r3, r2, #1
701c10bc:	e1c00003 	bic	r0, r0, r3

701c10c0 <loop_cmvac>:
701c10c0:	ee070f3a 	mcr	15, 0, r0, cr7, cr10, {1}
701c10c4:	e0800002 	add	r0, r0, r2
701c10c8:	e1500001 	cmp	r0, r1
701c10cc:	3afffffb 	bcc	701c10c0 <loop_cmvac>
701c10d0:	f57ff04f 	dsb	sy

701c10d4 <exit_loop_cmvac>:
701c10d4:	e12fff1e 	bx	lr

701c10d8 <inv_dcache_range>:
701c10d8:	e3510000 	cmp	r1, #0
701c10dc:	0a00000b 	beq	701c1110 <exit_loop_imvac>
701c10e0:	ee103f30 	mrc	15, 0, r3, cr0, cr0, {1}
701c10e4:	e7e33853 	ubfx	r3, r3, #16, #4
701c10e8:	e3a02004 	mov	r2, #4
701c10ec:	e1a02312 	lsl	r2, r2, r3
701c10f0:	e0801001 	add	r1, r0, r1
701c10f4:	e2423001 	sub	r3, r2, #1
701c10f8:	e1c00003 	bic	r0, r0, r3

701c10fc <loop_imvac>:
701c10fc:	ee070f36 	mcr	15, 0, r0, cr7, cr6, {1}
701c1100:	e0800002 	add	r0, r0, r2
701c1104:	e1500001 	cmp	r0, r1
701c1108:	3afffffb 	bcc	701c10fc <loop_imvac>
701c110c:	f57ff04f 	dsb	sy

701c1110 <exit_loop_imvac>:
701c1110:	e12fff1e 	bx	lr

701c1114 <smc>:
701c1114:	e89d0070 	ldm	sp, {r4, r5, r6}
701c1118:	e1600070 	smc	0

701c111c <zero_normalmem>:
701c111c:	e3a02000 	mov	r2, #0
701c1120:	e0801001 	add	r1, r0, r1
701c1124:	e3100007 	tst	r0, #7
701c1128:	0a000007 	beq	701c114c <zero_normalmem+0x30>
701c112c:	e380c007 	orr	ip, r0, #7
701c1130:	e29cc001 	adds	ip, ip, #1
701c1134:	0a00000b 	beq	701c1168 <zero_normalmem+0x4c>
701c1138:	e15c0001 	cmp	ip, r1
701c113c:	2a000009 	bcs	701c1168 <zero_normalmem+0x4c>
701c1140:	e4c02001 	strb	r2, [r0], #1
701c1144:	e150000c 	cmp	r0, ip
701c1148:	1afffffc 	bne	701c1140 <zero_normalmem+0x24>
701c114c:	e3c1c007 	bic	ip, r1, #7
701c1150:	e150000c 	cmp	r0, ip
701c1154:	2a000003 	bcs	701c1168 <zero_normalmem+0x4c>
701c1158:	e3a03000 	mov	r3, #0
701c115c:	e8a0000c 	stmia	r0!, {r2, r3}
701c1160:	e150000c 	cmp	r0, ip
701c1164:	3afffffc 	bcc	701c115c <zero_normalmem+0x40>
701c1168:	e1500001 	cmp	r0, r1
701c116c:	0a000002 	beq	701c117c <zero_normalmem+0x60>
701c1170:	e4c02001 	strb	r2, [r0], #1
701c1174:	e1500001 	cmp	r0, r1
701c1178:	1afffffc 	bne	701c1170 <zero_normalmem+0x54>
701c117c:	e12fff1e 	bx	lr

701c1180 <disable_mmu_secure>:
701c1180:	e3a01005 	mov	r1, #5

701c1184 <do_disable_mmu>:
701c1184:	ee110f10 	mrc	15, 0, r0, cr1, cr0, {0}
701c1188:	e1c00001 	bic	r0, r0, r1
701c118c:	ee010f10 	mcr	15, 0, r0, cr1, cr0, {0}
701c1190:	f57ff06f 	isb	sy
701c1194:	f57ff04f 	dsb	sy
701c1198:	e12fff1e 	bx	lr

701c119c <disable_mmu_icache_secure>:
701c119c:	e51f1000 	ldr	r1, [pc, #-0]	; 701c11a4 <disable_mmu_icache_secure+0x8>
701c11a0:	eafffff7 	b	701c1184 <do_disable_mmu>
701c11a4:	00001005 	.word	0x00001005

701c11a8 <__aeabi_uldivmod>:
701c11a8:	e92d4040 	push	{r6, lr}
701c11ac:	e24dd010 	sub	sp, sp, #16
701c11b0:	e28d6008 	add	r6, sp, #8
701c11b4:	e58d6000 	str	r6, [sp]
701c11b8:	fa000278 	blx	701c1ba0 <__udivmoddi4>
701c11bc:	e59d2008 	ldr	r2, [sp, #8]
701c11c0:	e59d300c 	ldr	r3, [sp, #12]
701c11c4:	e28dd010 	add	sp, sp, #16
701c11c8:	e8bd8040 	pop	{r6, pc}

701c11cc <plat_report_exception>:
701c11cc:	e1a0800e 	mov	r8, lr
701c11d0:	e3500017 	cmp	r0, #23
701c11d4:	0a000010 	beq	701c121c <print_exception_info+0xc>
701c11d8:	e350001b 	cmp	r0, #27
701c11dc:	1a000003 	bne	701c11f0 <other_exception_lbl>
701c11e0:	e59f4038 	ldr	r4, [pc, #56]	; 701c1220 <print_exception_info+0x10>
701c11e4:	ebffff89 	bl	701c1010 <asm_print_str>
701c11e8:	e1064300 	mrs	r4, LR_und
701c11ec:	ea000007 	b	701c1210 <print_exception_info>

701c11f0 <other_exception_lbl>:
701c11f0:	e1a09000 	mov	r9, r0
701c11f4:	e59f4028 	ldr	r4, [pc, #40]	; 701c1224 <print_exception_info+0x14>
701c11f8:	ebffff84 	bl	701c1010 <asm_print_str>
701c11fc:	e1a04009 	mov	r4, r9
701c1200:	ebffff89 	bl	701c102c <asm_print_hex>
701c1204:	e59f401c 	ldr	r4, [pc, #28]	; 701c1228 <print_exception_info+0x18>
701c1208:	ebffff80 	bl	701c1010 <asm_print_str>
701c120c:	e1a04006 	mov	r4, r6

701c1210 <print_exception_info>:
701c1210:	ebffff85 	bl	701c102c <asm_print_hex>
701c1214:	e59f4010 	ldr	r4, [pc, #16]	; 701c122c <print_exception_info+0x1c>
701c1218:	ebffff7c 	bl	701c1010 <asm_print_str>
701c121c:	e12fff18 	bx	r8
701c1220:	701c3550 	.word	0x701c3550
701c1224:	701c356e 	.word	0x701c356e
701c1228:	701c3581 	.word	0x701c3581
701c122c:	701c35b5 	.word	0x701c35b5

701c1230 <plat_report_prefetch_abort>:
701c1230:	e1a0800e 	mov	r8, lr
701c1234:	e1a09000 	mov	r9, r0
701c1238:	e59f4038 	ldr	r4, [pc, #56]	; 701c1278 <plat_report_prefetch_abort+0x48>
701c123c:	ebffff73 	bl	701c1010 <asm_print_str>
701c1240:	e1a04009 	mov	r4, r9
701c1244:	e2444004 	sub	r4, r4, #4
701c1248:	ebffff77 	bl	701c102c <asm_print_hex>
701c124c:	e59f4028 	ldr	r4, [pc, #40]	; 701c127c <plat_report_prefetch_abort+0x4c>
701c1250:	ebffff6e 	bl	701c1010 <asm_print_str>
701c1254:	ee154f30 	mrc	15, 0, r4, cr5, cr0, {1}
701c1258:	ebffff73 	bl	701c102c <asm_print_hex>
701c125c:	e59f401c 	ldr	r4, [pc, #28]	; 701c1280 <plat_report_prefetch_abort+0x50>
701c1260:	ebffff6a 	bl	701c1010 <asm_print_str>
701c1264:	ee164f50 	mrc	15, 0, r4, cr6, cr0, {2}
701c1268:	ebffff6f 	bl	701c102c <asm_print_hex>
701c126c:	e59f4010 	ldr	r4, [pc, #16]	; 701c1284 <plat_report_prefetch_abort+0x54>
701c1270:	ebffff66 	bl	701c1010 <asm_print_str>
701c1274:	e12fff18 	bx	r8
701c1278:	701c3526 	.word	0x701c3526
701c127c:	701c359f 	.word	0x701c359f
701c1280:	701c35aa 	.word	0x701c35aa
701c1284:	701c35b5 	.word	0x701c35b5

701c1288 <plat_report_data_abort>:
701c1288:	e1a0800e 	mov	r8, lr
701c128c:	e1a09000 	mov	r9, r0
701c1290:	e59f4038 	ldr	r4, [pc, #56]	; 701c12d0 <plat_report_data_abort+0x48>
701c1294:	ebffff5d 	bl	701c1010 <asm_print_str>
701c1298:	e1a04009 	mov	r4, r9
701c129c:	e2444008 	sub	r4, r4, #8
701c12a0:	ebffff61 	bl	701c102c <asm_print_hex>
701c12a4:	e59f4028 	ldr	r4, [pc, #40]	; 701c12d4 <plat_report_data_abort+0x4c>
701c12a8:	ebffff58 	bl	701c1010 <asm_print_str>
701c12ac:	ee154f10 	mrc	15, 0, r4, cr5, cr0, {0}
701c12b0:	ebffff5d 	bl	701c102c <asm_print_hex>
701c12b4:	e59f401c 	ldr	r4, [pc, #28]	; 701c12d8 <plat_report_data_abort+0x50>
701c12b8:	ebffff54 	bl	701c1010 <asm_print_str>
701c12bc:	ee164f10 	mrc	15, 0, r4, cr6, cr0, {0}
701c12c0:	ebffff59 	bl	701c102c <asm_print_hex>
701c12c4:	e59f4010 	ldr	r4, [pc, #16]	; 701c12dc <plat_report_data_abort+0x54>
701c12c8:	ebffff50 	bl	701c1010 <asm_print_str>
701c12cc:	e12fff18 	bx	r8
701c12d0:	701c353d 	.word	0x701c353d
701c12d4:	701c3589 	.word	0x701c3589
701c12d8:	701c3594 	.word	0x701c3594
701c12dc:	701c35b5 	.word	0x701c35b5

701c12e0 <plat_crash_console_init>:
701c12e0:	e30c0000 	movw	r0, #49152	; 0xc000
701c12e4:	e3440200 	movt	r0, #16896	; 0x4200
701c12e8:	e3071840 	movw	r1, #30784	; 0x7840
701c12ec:	e340117d 	movt	r1, #381	; 0x17d
701c12f0:	e30e2360 	movw	r2, #58208	; 0xe360
701c12f4:	e3402016 	movt	r2, #22
701c12f8:	ea00000a 	b	701c1328 <console_core_init>

701c12fc <plat_crash_console_putc>:
701c12fc:	e30c1000 	movw	r1, #49152	; 0xc000
701c1300:	e3441200 	movt	r1, #16896	; 0x4200
701c1304:	ea000399 	b	701c2170 <__console_putc_from_arm>

701c1308 <plat_crash_console_flush>:
701c1308:	e30c0000 	movw	r0, #49152	; 0xc000
701c130c:	e3440200 	movt	r0, #16896	; 0x4200
701c1310:	ea00004b 	b	701c1444 <console_core_flush>

701c1314 <plat_panic_handler>:
701c1314:	e10f0000 	mrs	r0, CPSR
701c1318:	e200001f 	and	r0, r0, #31
701c131c:	ebffffaa 	bl	701c11cc <plat_report_exception>
701c1320:	e1a0e006 	mov	lr, r6
701c1324:	eafffffe 	b	701c1324 <plat_panic_handler+0x10>

701c1328 <console_core_init>:
701c1328:	e3500000 	cmp	r0, #0
701c132c:	0a000008 	beq	701c1354 <core_register_fail>
701c1330:	e3510000 	cmp	r1, #0
701c1334:	0a000006 	beq	701c1354 <core_register_fail>
701c1338:	e3520000 	cmp	r2, #0
701c133c:	0a000004 	beq	701c1354 <core_register_fail>
701c1340:	e5903058 	ldr	r3, [r0, #88]	; 0x58
701c1344:	e3833101 	orr	r3, r3, #1073741824	; 0x40000000
701c1348:	e5803058 	str	r3, [r0, #88]	; 0x58
701c134c:	e3a00001 	mov	r0, #1
701c1350:	e12fff1e 	bx	lr

701c1354 <core_register_fail>:
701c1354:	e3a00000 	mov	r0, #0
701c1358:	e12fff1e 	bx	lr

701c135c <console_core_register>:
701c135c:	e92d4010 	push	{r4, lr}
701c1360:	e1a04003 	mov	r4, r3
701c1364:	e3540000 	cmp	r4, #0
701c1368:	0a00000e 	beq	701c13a8 <register_fail>
701c136c:	e5840018 	str	r0, [r4, #24]
701c1370:	ebffffec 	bl	701c1328 <console_core_init>
701c1374:	e3500000 	cmp	r0, #0
701c1378:	0a00000a 	beq	701c13a8 <register_fail>
701c137c:	e1a00004 	mov	r0, r4
701c1380:	e8bd4010 	pop	{r4, lr}
701c1384:	e59f1020 	ldr	r1, [pc, #32]	; 701c13ac <register_fail+0x4>
701c1388:	e5801008 	str	r1, [r0, #8]
701c138c:	e59f101c 	ldr	r1, [pc, #28]	; 701c13b0 <register_fail+0x8>
701c1390:	e580100c 	str	r1, [r0, #12]
701c1394:	e59f1018 	ldr	r1, [pc, #24]	; 701c13b4 <register_fail+0xc>
701c1398:	e5801010 	str	r1, [r0, #16]
701c139c:	e3a01005 	mov	r1, #5
701c13a0:	e5801004 	str	r1, [r0, #4]
701c13a4:	ea000375 	b	701c2180 <__console_register_from_arm>

701c13a8 <register_fail>:
701c13a8:	e8bd8010 	pop	{r4, pc}
701c13ac:	701c13b8 	.word	0x701c13b8
701c13b0:	701c1414 	.word	0x701c1414
701c13b4:	701c1444 	.word	0x701c1444

701c13b8 <console_core_putc>:
701c13b8:	e3510000 	cmp	r1, #0
701c13bc:	1a000002 	bne	701c13cc <console_core_putc+0x14>
701c13c0:	e59f0048 	ldr	r0, [pc, #72]	; 701c1410 <putc_error+0x8>
701c13c4:	e3a0106b 	mov	r1, #107	; 0x6b
701c13c8:	eafffef1 	b	701c0f94 <asm_assert>
701c13cc:	e5911018 	ldr	r1, [r1, #24]
701c13d0:	e3510000 	cmp	r1, #0
701c13d4:	0a00000b 	beq	701c1408 <putc_error>
701c13d8:	e350000a 	cmp	r0, #10
701c13dc:	1a000004 	bne	701c13f4 <console_core_putc+0x3c>
701c13e0:	e5912014 	ldr	r2, [r1, #20]
701c13e4:	e3120502 	tst	r2, #8388608	; 0x800000
701c13e8:	0afffffc 	beq	701c13e0 <console_core_putc+0x28>
701c13ec:	e3a0200d 	mov	r2, #13
701c13f0:	e5812068 	str	r2, [r1, #104]	; 0x68
701c13f4:	e5912014 	ldr	r2, [r1, #20]
701c13f8:	e3120502 	tst	r2, #8388608	; 0x800000
701c13fc:	0afffffc 	beq	701c13f4 <console_core_putc+0x3c>
701c1400:	e5810068 	str	r0, [r1, #104]	; 0x68
701c1404:	e12fff1e 	bx	lr

701c1408 <putc_error>:
701c1408:	e3e00000 	mvn	r0, #0
701c140c:	e12fff1e 	bx	lr
701c1410:	701c35b8 	.word	0x701c35b8

701c1414 <console_core_getc>:
701c1414:	e3500000 	cmp	r0, #0
701c1418:	1a000002 	bne	701c1428 <console_core_getc+0x14>
701c141c:	e59f001c 	ldr	r0, [pc, #28]	; 701c1440 <getc_error+0x8>
701c1420:	e3a01093 	mov	r1, #147	; 0x93
701c1424:	eafffeda 	b	701c0f94 <asm_assert>
701c1428:	e5900018 	ldr	r0, [r0, #24]
701c142c:	e3500000 	cmp	r0, #0
701c1430:	0a000000 	beq	701c1438 <getc_error>
701c1434:	e12fff1e 	bx	lr

701c1438 <getc_error>:
701c1438:	e3e00000 	mvn	r0, #0
701c143c:	e12fff1e 	bx	lr
701c1440:	701c35b8 	.word	0x701c35b8

701c1444 <console_core_flush>:
701c1444:	e3a00000 	mov	r0, #0
701c1448:	e12fff1e 	bx	lr

701c144c <enable_mmu_direct_svc_mon>:
701c144c:	ee111f10 	mrc	15, 0, r1, cr1, cr0, {0}
701c1450:	e3110001 	tst	r1, #1
701c1454:	0a000002 	beq	701c1464 <enable_mmu_direct_svc_mon+0x18>
701c1458:	e59f0060 	ldr	r0, [pc, #96]	; 701c14c0 <enable_mmu_direct_svc_mon+0x74>
701c145c:	e3a01014 	mov	r1, #20
701c1460:	eafffecb 	b	701c0f94 <asm_assert>
701c1464:	ee080f17 	mcr	15, 0, r0, cr8, cr7, {0}
701c1468:	e1a03000 	mov	r3, r0
701c146c:	e59f0050 	ldr	r0, [pc, #80]	; 701c14c4 <enable_mmu_direct_svc_mon+0x78>
701c1470:	e5901000 	ldr	r1, [r0]
701c1474:	ee0a1f12 	mcr	15, 0, r1, cr10, cr2, {0}
701c1478:	e5902008 	ldr	r2, [r0, #8]
701c147c:	ee022f50 	mcr	15, 0, r2, cr2, cr0, {2}
701c1480:	e5901010 	ldr	r1, [r0, #16]
701c1484:	e5902014 	ldr	r2, [r0, #20]
701c1488:	ec421f02 	mcrr	15, 0, r1, r2, cr2
701c148c:	e3a01000 	mov	r1, #0
701c1490:	e3a02000 	mov	r2, #0
701c1494:	ec421f12 	mcrr	15, 1, r1, r2, cr2
701c1498:	f57ff04b 	dsb	ish
701c149c:	f57ff06f 	isb	sy
701c14a0:	ee111f10 	mrc	15, 0, r1, cr1, cr0, {0}
701c14a4:	e59f201c 	ldr	r2, [pc, #28]	; 701c14c8 <enable_mmu_direct_svc_mon+0x7c>
701c14a8:	e1811002 	orr	r1, r1, r2
701c14ac:	e3130001 	tst	r3, #1
701c14b0:	13c11004 	bicne	r1, r1, #4
701c14b4:	ee011f10 	mcr	15, 0, r1, cr1, cr0, {0}
701c14b8:	f57ff06f 	isb	sy
701c14bc:	e12fff1e 	bx	lr
701c14c0:	701c35e5 	.word	0x701c35e5
701c14c4:	701c5210 	.word	0x701c5210
701c14c8:	00080005 	.word	0x00080005

701c14cc <vprintf>:
701c14cc:	e92d 4ff0 	stmdb	sp!, {r4, r5, r6, r7, r8, r9, sl, fp, lr}
701c14d0:	2500      	movs	r5, #0
701c14d2:	4606      	mov	r6, r0
701c14d4:	b085      	sub	sp, #20
701c14d6:	460c      	mov	r4, r1
701c14d8:	46a8      	mov	r8, r5
701c14da:	f04f 0a0a 	mov.w	sl, #10
701c14de:	7830      	ldrb	r0, [r6, #0]
701c14e0:	b918      	cbnz	r0, 701c14ea <vprintf+0x1e>
701c14e2:	4628      	mov	r0, r5
701c14e4:	b005      	add	sp, #20
701c14e6:	e8bd 8ff0 	ldmia.w	sp!, {r4, r5, r6, r7, r8, r9, sl, fp, pc}
701c14ea:	3601      	adds	r6, #1
701c14ec:	2825      	cmp	r0, #37	; 0x25
701c14ee:	f040 80a9 	bne.w	701c1644 <vprintf+0x178>
701c14f2:	f04f 0b00 	mov.w	fp, #0
701c14f6:	465a      	mov	r2, fp
701c14f8:	e001      	b.n	701c14fe <vprintf+0x32>
701c14fa:	f04f 0830 	mov.w	r8, #48	; 0x30
701c14fe:	7833      	ldrb	r3, [r6, #0]
701c1500:	2b30      	cmp	r3, #48	; 0x30
701c1502:	f000 8091 	beq.w	701c1628 <vprintf+0x15c>
701c1506:	3b64      	subs	r3, #100	; 0x64
701c1508:	b2d9      	uxtb	r1, r3
701c150a:	2916      	cmp	r1, #22
701c150c:	f200 809e 	bhi.w	701c164c <vprintf+0x180>
701c1510:	2b16      	cmp	r3, #22
701c1512:	f200 809b 	bhi.w	701c164c <vprintf+0x180>
701c1516:	e8df f003 	tbb	[pc, r3]
701c151a:	990c      	.short	0x990c
701c151c:	0c999999 	.word	0x0c999999
701c1520:	99729999 	.word	0x99729999
701c1524:	99439999 	.word	0x99439999
701c1528:	75993199 	.word	0x75993199
701c152c:	99609999 	.word	0x99609999
701c1530:	73          	.byte	0x73
701c1531:	00          	.byte	0x00
701c1532:	2a01      	cmp	r2, #1
701c1534:	dd1a      	ble.n	701c156c <vprintf+0xa0>
701c1536:	3407      	adds	r4, #7
701c1538:	f024 0407 	bic.w	r4, r4, #7
701c153c:	46a1      	mov	r9, r4
701c153e:	6864      	ldr	r4, [r4, #4]
701c1540:	f859 7b08 	ldr.w	r7, [r9], #8
701c1544:	2c00      	cmp	r4, #0
701c1546:	da16      	bge.n	701c1576 <vprintf+0xaa>
701c1548:	202d      	movs	r0, #45	; 0x2d
701c154a:	f10b 3bff 	add.w	fp, fp, #4294967295	; 0xffffffff
701c154e:	f000 fdd5 	bl	701c20fc <putchar>
701c1552:	4278      	negs	r0, r7
701c1554:	eb64 0144 	sbc.w	r1, r4, r4, lsl #1
701c1558:	4643      	mov	r3, r8
701c155a:	220a      	movs	r2, #10
701c155c:	f8cd b000 	str.w	fp, [sp]
701c1560:	464c      	mov	r4, r9
701c1562:	f000 fd8b 	bl	701c207c <unsigned_num_print>
701c1566:	4405      	add	r5, r0
701c1568:	3601      	adds	r6, #1
701c156a:	e7b8      	b.n	701c14de <vprintf+0x12>
701c156c:	6827      	ldr	r7, [r4, #0]
701c156e:	f104 0904 	add.w	r9, r4, #4
701c1572:	17fc      	asrs	r4, r7, #31
701c1574:	e7e6      	b.n	701c1544 <vprintf+0x78>
701c1576:	4638      	mov	r0, r7
701c1578:	4621      	mov	r1, r4
701c157a:	e7ed      	b.n	701c1558 <vprintf+0x8c>
701c157c:	f854 9b04 	ldr.w	r9, [r4], #4
701c1580:	f1b9 0f00 	cmp.w	r9, #0
701c1584:	d10a      	bne.n	701c159c <vprintf+0xd0>
701c1586:	f000 fd45 	bl	701c2014 <__assert>
701c158a:	3701      	adds	r7, #1
701c158c:	f000 fdb6 	bl	701c20fc <putchar>
701c1590:	f819 0007 	ldrb.w	r0, [r9, r7]
701c1594:	2800      	cmp	r0, #0
701c1596:	d1f8      	bne.n	701c158a <vprintf+0xbe>
701c1598:	443d      	add	r5, r7
701c159a:	e7e5      	b.n	701c1568 <vprintf+0x9c>
701c159c:	2700      	movs	r7, #0
701c159e:	e7f7      	b.n	701c1590 <vprintf+0xc4>
701c15a0:	f854 9b04 	ldr.w	r9, [r4], #4
701c15a4:	f1b9 0f00 	cmp.w	r9, #0
701c15a8:	d007      	beq.n	701c15ba <vprintf+0xee>
701c15aa:	4b2a      	ldr	r3, [pc, #168]	; (701c1654 <vprintf+0x188>)
701c15ac:	2700      	movs	r7, #0
701c15ae:	f813 0b01 	ldrb.w	r0, [r3], #1
701c15b2:	b960      	cbnz	r0, 701c15ce <vprintf+0x102>
701c15b4:	443d      	add	r5, r7
701c15b6:	f1ab 0b02 	sub.w	fp, fp, #2
701c15ba:	4643      	mov	r3, r8
701c15bc:	2210      	movs	r2, #16
701c15be:	4648      	mov	r0, r9
701c15c0:	2100      	movs	r1, #0
701c15c2:	f8cd b000 	str.w	fp, [sp]
701c15c6:	f000 fd59 	bl	701c207c <unsigned_num_print>
701c15ca:	4405      	add	r5, r0
701c15cc:	e7cc      	b.n	701c1568 <vprintf+0x9c>
701c15ce:	9303      	str	r3, [sp, #12]
701c15d0:	3701      	adds	r7, #1
701c15d2:	f000 fd93 	bl	701c20fc <putchar>
701c15d6:	9b03      	ldr	r3, [sp, #12]
701c15d8:	e7e9      	b.n	701c15ae <vprintf+0xe2>
701c15da:	2a01      	cmp	r2, #1
701c15dc:	dd0b      	ble.n	701c15f6 <vprintf+0x12a>
701c15de:	1de1      	adds	r1, r4, #7
701c15e0:	f021 0107 	bic.w	r1, r1, #7
701c15e4:	460c      	mov	r4, r1
701c15e6:	6849      	ldr	r1, [r1, #4]
701c15e8:	f854 0b08 	ldr.w	r0, [r4], #8
701c15ec:	4643      	mov	r3, r8
701c15ee:	2210      	movs	r2, #16
701c15f0:	f8cd b000 	str.w	fp, [sp]
701c15f4:	e7e7      	b.n	701c15c6 <vprintf+0xfa>
701c15f6:	f854 0b04 	ldr.w	r0, [r4], #4
701c15fa:	2100      	movs	r1, #0
701c15fc:	e7f6      	b.n	701c15ec <vprintf+0x120>
701c15fe:	3201      	adds	r2, #1
701c1600:	3601      	adds	r6, #1
701c1602:	e77c      	b.n	701c14fe <vprintf+0x32>
701c1604:	2a01      	cmp	r2, #1
701c1606:	dd0b      	ble.n	701c1620 <vprintf+0x154>
701c1608:	1de1      	adds	r1, r4, #7
701c160a:	f021 0107 	bic.w	r1, r1, #7
701c160e:	460c      	mov	r4, r1
701c1610:	6849      	ldr	r1, [r1, #4]
701c1612:	f854 0b08 	ldr.w	r0, [r4], #8
701c1616:	4643      	mov	r3, r8
701c1618:	220a      	movs	r2, #10
701c161a:	f8cd b000 	str.w	fp, [sp]
701c161e:	e7d2      	b.n	701c15c6 <vprintf+0xfa>
701c1620:	f854 0b04 	ldr.w	r0, [r4], #4
701c1624:	2100      	movs	r1, #0
701c1626:	e7f6      	b.n	701c1616 <vprintf+0x14a>
701c1628:	1c71      	adds	r1, r6, #1
701c162a:	f04f 0b00 	mov.w	fp, #0
701c162e:	460e      	mov	r6, r1
701c1630:	f811 3b01 	ldrb.w	r3, [r1], #1
701c1634:	3b30      	subs	r3, #48	; 0x30
701c1636:	b2d8      	uxtb	r0, r3
701c1638:	2809      	cmp	r0, #9
701c163a:	f63f af5e 	bhi.w	701c14fa <vprintf+0x2e>
701c163e:	fb0a 3b0b 	mla	fp, sl, fp, r3
701c1642:	e7f4      	b.n	701c162e <vprintf+0x162>
701c1644:	3501      	adds	r5, #1
701c1646:	f000 fd59 	bl	701c20fc <putchar>
701c164a:	e748      	b.n	701c14de <vprintf+0x12>
701c164c:	f04f 35ff 	mov.w	r5, #4294967295	; 0xffffffff
701c1650:	e747      	b.n	701c14e2 <vprintf+0x16>
701c1652:	bf00      	nop
701c1654:	701c360d 	.word	0x701c360d

701c1658 <device_type_sh>:
701c1658:	2001      	movs	r0, #1
701c165a:	4770      	bx	lr

701c165c <sh_file_close>:
701c165c:	b508      	push	{r3, lr}
701c165e:	b908      	cbnz	r0, 701c1664 <sh_file_close+0x8>
701c1660:	f000 fcd8 	bl	701c2014 <__assert>
701c1664:	6840      	ldr	r0, [r0, #4]
701c1666:	f000 f9e6 	bl	701c1a36 <semihosting_file_close>
701c166a:	2800      	cmp	r0, #0
701c166c:	f06f 0001 	mvn.w	r0, #1
701c1670:	bfa8      	it	ge
701c1672:	2000      	movge	r0, #0
701c1674:	bd08      	pop	{r3, pc}

701c1676 <sh_file_write>:
701c1676:	b537      	push	{r0, r1, r2, r4, r5, lr}
701c1678:	4614      	mov	r4, r2
701c167a:	461d      	mov	r5, r3
701c167c:	9201      	str	r2, [sp, #4]
701c167e:	b908      	cbnz	r0, 701c1684 <sh_file_write+0xe>
701c1680:	f000 fcc8 	bl	701c2014 <__assert>
701c1684:	2b00      	cmp	r3, #0
701c1686:	d0fb      	beq.n	701c1680 <sh_file_write+0xa>
701c1688:	460a      	mov	r2, r1
701c168a:	6840      	ldr	r0, [r0, #4]
701c168c:	a901      	add	r1, sp, #4
701c168e:	f000 f9c0 	bl	701c1a12 <semihosting_file_write>
701c1692:	9a01      	ldr	r2, [sp, #4]
701c1694:	2800      	cmp	r0, #0
701c1696:	f06f 0301 	mvn.w	r3, #1
701c169a:	eba4 0402 	sub.w	r4, r4, r2
701c169e:	bf18      	it	ne
701c16a0:	4618      	movne	r0, r3
701c16a2:	602c      	str	r4, [r5, #0]
701c16a4:	b003      	add	sp, #12
701c16a6:	bd30      	pop	{r4, r5, pc}

701c16a8 <sh_file_read>:
701c16a8:	b513      	push	{r0, r1, r4, lr}
701c16aa:	461c      	mov	r4, r3
701c16ac:	9201      	str	r2, [sp, #4]
701c16ae:	b908      	cbnz	r0, 701c16b4 <sh_file_read+0xc>
701c16b0:	f000 fcb0 	bl	701c2014 <__assert>
701c16b4:	2b00      	cmp	r3, #0
701c16b6:	d0fb      	beq.n	701c16b0 <sh_file_read+0x8>
701c16b8:	460a      	mov	r2, r1
701c16ba:	6840      	ldr	r0, [r0, #4]
701c16bc:	a901      	add	r1, sp, #4
701c16be:	f000 f98f 	bl	701c19e0 <semihosting_file_read>
701c16c2:	2800      	cmp	r0, #0
701c16c4:	db04      	blt.n	701c16d0 <sh_file_read+0x28>
701c16c6:	9b01      	ldr	r3, [sp, #4]
701c16c8:	2000      	movs	r0, #0
701c16ca:	6023      	str	r3, [r4, #0]
701c16cc:	b002      	add	sp, #8
701c16ce:	bd10      	pop	{r4, pc}
701c16d0:	f06f 0001 	mvn.w	r0, #1
701c16d4:	e7fa      	b.n	701c16cc <sh_file_read+0x24>

701c16d6 <sh_file_len>:
701c16d6:	b510      	push	{r4, lr}
701c16d8:	460c      	mov	r4, r1
701c16da:	b908      	cbnz	r0, 701c16e0 <sh_file_len+0xa>
701c16dc:	f000 fc9a 	bl	701c2014 <__assert>
701c16e0:	2900      	cmp	r1, #0
701c16e2:	d0fb      	beq.n	701c16dc <sh_file_len+0x6>
701c16e4:	6840      	ldr	r0, [r0, #4]
701c16e6:	f000 f9af 	bl	701c1a48 <semihosting_file_length>
701c16ea:	2800      	cmp	r0, #0
701c16ec:	db02      	blt.n	701c16f4 <sh_file_len+0x1e>
701c16ee:	6020      	str	r0, [r4, #0]
701c16f0:	2000      	movs	r0, #0
701c16f2:	bd10      	pop	{r4, pc}
701c16f4:	f06f 0001 	mvn.w	r0, #1
701c16f8:	e7fb      	b.n	701c16f2 <sh_file_len+0x1c>

701c16fa <sh_file_seek>:
701c16fa:	4611      	mov	r1, r2
701c16fc:	b508      	push	{r3, lr}
701c16fe:	b908      	cbnz	r0, 701c1704 <sh_file_seek+0xa>
701c1700:	f000 fc88 	bl	701c2014 <__assert>
701c1704:	6840      	ldr	r0, [r0, #4]
701c1706:	f000 f95c 	bl	701c19c2 <semihosting_file_seek>
701c170a:	f06f 0301 	mvn.w	r3, #1
701c170e:	2800      	cmp	r0, #0
701c1710:	bf18      	it	ne
701c1712:	4618      	movne	r0, r3
701c1714:	bd08      	pop	{r3, pc}

701c1716 <sh_file_open>:
701c1716:	b510      	push	{r4, lr}
701c1718:	4614      	mov	r4, r2
701c171a:	b909      	cbnz	r1, 701c1720 <sh_file_open+0xa>
701c171c:	f000 fc7a 	bl	701c2014 <__assert>
701c1720:	2a00      	cmp	r2, #0
701c1722:	d0fb      	beq.n	701c171c <sh_file_open+0x6>
701c1724:	e9d1 0100 	ldrd	r0, r1, [r1]
701c1728:	f000 f93e 	bl	701c19a8 <semihosting_file_open>
701c172c:	2800      	cmp	r0, #0
701c172e:	dd02      	ble.n	701c1736 <sh_file_open+0x20>
701c1730:	6060      	str	r0, [r4, #4]
701c1732:	2000      	movs	r0, #0
701c1734:	bd10      	pop	{r4, pc}
701c1736:	f06f 0001 	mvn.w	r0, #1
701c173a:	e7fb      	b.n	701c1734 <sh_file_open+0x1e>

701c173c <is_valid_dev>:
701c173c:	b508      	push	{r3, lr}
701c173e:	b148      	cbz	r0, 701c1754 <is_valid_dev+0x18>
701c1740:	6800      	ldr	r0, [r0, #0]
701c1742:	b138      	cbz	r0, 701c1754 <is_valid_dev+0x18>
701c1744:	6800      	ldr	r0, [r0, #0]
701c1746:	b128      	cbz	r0, 701c1754 <is_valid_dev+0x18>
701c1748:	4780      	blx	r0
701c174a:	2809      	cmp	r0, #9
701c174c:	bf88      	it	hi
701c174e:	2000      	movhi	r0, #0
701c1750:	bf98      	it	ls
701c1752:	2001      	movls	r0, #1
701c1754:	bd08      	pop	{r3, pc}

701c1756 <is_valid_entity>:
701c1756:	b508      	push	{r3, lr}
701c1758:	b128      	cbz	r0, 701c1766 <is_valid_entity+0x10>
701c175a:	6800      	ldr	r0, [r0, #0]
701c175c:	f7ff ffee 	bl	701c173c <is_valid_dev>
701c1760:	3800      	subs	r0, #0
701c1762:	bf18      	it	ne
701c1764:	2001      	movne	r0, #1
701c1766:	bd08      	pop	{r3, pc}

701c1768 <io_dev_open>:
701c1768:	4603      	mov	r3, r0
701c176a:	b510      	push	{r4, lr}
701c176c:	4608      	mov	r0, r1
701c176e:	4611      	mov	r1, r2
701c1770:	b90a      	cbnz	r2, 701c1776 <io_dev_open+0xe>
701c1772:	f000 fc4f 	bl	701c2014 <__assert>
701c1776:	2b00      	cmp	r3, #0
701c1778:	d0fb      	beq.n	701c1772 <io_dev_open+0xa>
701c177a:	681b      	ldr	r3, [r3, #0]
701c177c:	2b00      	cmp	r3, #0
701c177e:	d0f8      	beq.n	701c1772 <io_dev_open+0xa>
701c1780:	e8bd 4010 	ldmia.w	sp!, {r4, lr}
701c1784:	4718      	bx	r3

701c1786 <io_dev_init>:
701c1786:	b570      	push	{r4, r5, r6, lr}
701c1788:	460d      	mov	r5, r1
701c178a:	4604      	mov	r4, r0
701c178c:	b908      	cbnz	r0, 701c1792 <io_dev_init+0xc>
701c178e:	f000 fc41 	bl	701c2014 <__assert>
701c1792:	f7ff ffd3 	bl	701c173c <is_valid_dev>
701c1796:	2800      	cmp	r0, #0
701c1798:	d0f9      	beq.n	701c178e <io_dev_init+0x8>
701c179a:	6823      	ldr	r3, [r4, #0]
701c179c:	69db      	ldr	r3, [r3, #28]
701c179e:	b123      	cbz	r3, 701c17aa <io_dev_init+0x24>
701c17a0:	4629      	mov	r1, r5
701c17a2:	4620      	mov	r0, r4
701c17a4:	e8bd 4070 	ldmia.w	sp!, {r4, r5, r6, lr}
701c17a8:	4718      	bx	r3
701c17aa:	4618      	mov	r0, r3
701c17ac:	bd70      	pop	{r4, r5, r6, pc}

701c17ae <io_dev_close>:
701c17ae:	b510      	push	{r4, lr}
701c17b0:	4604      	mov	r4, r0
701c17b2:	b908      	cbnz	r0, 701c17b8 <io_dev_close+0xa>
701c17b4:	f000 fc2e 	bl	701c2014 <__assert>
701c17b8:	f7ff ffc0 	bl	701c173c <is_valid_dev>
701c17bc:	2800      	cmp	r0, #0
701c17be:	d0f9      	beq.n	701c17b4 <io_dev_close+0x6>
701c17c0:	6823      	ldr	r3, [r4, #0]
701c17c2:	6a1b      	ldr	r3, [r3, #32]
701c17c4:	b11b      	cbz	r3, 701c17ce <io_dev_close+0x20>
701c17c6:	4620      	mov	r0, r4
701c17c8:	e8bd 4010 	ldmia.w	sp!, {r4, lr}
701c17cc:	4718      	bx	r3
701c17ce:	4618      	mov	r0, r3
701c17d0:	bd10      	pop	{r4, pc}

701c17d2 <io_seek>:
701c17d2:	e92d 41f0 	stmdb	sp!, {r4, r5, r6, r7, r8, lr}
701c17d6:	4604      	mov	r4, r0
701c17d8:	460d      	mov	r5, r1
701c17da:	4617      	mov	r7, r2
701c17dc:	461e      	mov	r6, r3
701c17de:	f7ff ffba 	bl	701c1756 <is_valid_entity>
701c17e2:	b110      	cbz	r0, 701c17ea <io_seek+0x18>
701c17e4:	1e6b      	subs	r3, r5, #1
701c17e6:	2b02      	cmp	r3, #2
701c17e8:	d901      	bls.n	701c17ee <io_seek+0x1c>
701c17ea:	f000 fc13 	bl	701c2014 <__assert>
701c17ee:	6823      	ldr	r3, [r4, #0]
701c17f0:	681b      	ldr	r3, [r3, #0]
701c17f2:	f8d3 e008 	ldr.w	lr, [r3, #8]
701c17f6:	f1be 0f00 	cmp.w	lr, #0
701c17fa:	d007      	beq.n	701c180c <io_seek+0x3a>
701c17fc:	463a      	mov	r2, r7
701c17fe:	4633      	mov	r3, r6
701c1800:	4629      	mov	r1, r5
701c1802:	4620      	mov	r0, r4
701c1804:	46f4      	mov	ip, lr
701c1806:	e8bd 41f0 	ldmia.w	sp!, {r4, r5, r6, r7, r8, lr}
701c180a:	4760      	bx	ip
701c180c:	f06f 0012 	mvn.w	r0, #18
701c1810:	e8bd 81f0 	ldmia.w	sp!, {r4, r5, r6, r7, r8, pc}

701c1814 <io_size>:
701c1814:	b570      	push	{r4, r5, r6, lr}
701c1816:	4604      	mov	r4, r0
701c1818:	460d      	mov	r5, r1
701c181a:	f7ff ff9c 	bl	701c1756 <is_valid_entity>
701c181e:	b100      	cbz	r0, 701c1822 <io_size+0xe>
701c1820:	b90d      	cbnz	r5, 701c1826 <io_size+0x12>
701c1822:	f000 fbf7 	bl	701c2014 <__assert>
701c1826:	6823      	ldr	r3, [r4, #0]
701c1828:	681b      	ldr	r3, [r3, #0]
701c182a:	68db      	ldr	r3, [r3, #12]
701c182c:	b123      	cbz	r3, 701c1838 <io_size+0x24>
701c182e:	4629      	mov	r1, r5
701c1830:	4620      	mov	r0, r4
701c1832:	e8bd 4070 	ldmia.w	sp!, {r4, r5, r6, lr}
701c1836:	4718      	bx	r3
701c1838:	f06f 0012 	mvn.w	r0, #18
701c183c:	bd70      	pop	{r4, r5, r6, pc}

701c183e <io_read>:
701c183e:	e92d 41f0 	stmdb	sp!, {r4, r5, r6, r7, r8, lr}
701c1842:	4604      	mov	r4, r0
701c1844:	460d      	mov	r5, r1
701c1846:	4616      	mov	r6, r2
701c1848:	461f      	mov	r7, r3
701c184a:	f7ff ff84 	bl	701c1756 <is_valid_entity>
701c184e:	b908      	cbnz	r0, 701c1854 <io_read+0x16>
701c1850:	f000 fbe0 	bl	701c2014 <__assert>
701c1854:	6823      	ldr	r3, [r4, #0]
701c1856:	681b      	ldr	r3, [r3, #0]
701c1858:	f8d3 e010 	ldr.w	lr, [r3, #16]
701c185c:	f1be 0f00 	cmp.w	lr, #0
701c1860:	d007      	beq.n	701c1872 <io_read+0x34>
701c1862:	463b      	mov	r3, r7
701c1864:	4632      	mov	r2, r6
701c1866:	4629      	mov	r1, r5
701c1868:	4620      	mov	r0, r4
701c186a:	46f4      	mov	ip, lr
701c186c:	e8bd 41f0 	ldmia.w	sp!, {r4, r5, r6, r7, r8, lr}
701c1870:	4760      	bx	ip
701c1872:	f06f 0012 	mvn.w	r0, #18
701c1876:	e8bd 81f0 	ldmia.w	sp!, {r4, r5, r6, r7, r8, pc}

701c187a <io_close>:
701c187a:	b538      	push	{r3, r4, r5, lr}
701c187c:	4605      	mov	r5, r0
701c187e:	f7ff ff6a 	bl	701c1756 <is_valid_entity>
701c1882:	b908      	cbnz	r0, 701c1888 <io_close+0xe>
701c1884:	f000 fbc6 	bl	701c2014 <__assert>
701c1888:	682b      	ldr	r3, [r5, #0]
701c188a:	681b      	ldr	r3, [r3, #0]
701c188c:	699c      	ldr	r4, [r3, #24]
701c188e:	b114      	cbz	r4, 701c1896 <io_close+0x1c>
701c1890:	4628      	mov	r0, r5
701c1892:	47a0      	blx	r4
701c1894:	4604      	mov	r4, r0
701c1896:	4628      	mov	r0, r5
701c1898:	f7fe fc18 	bl	701c00cc <free_entity.isra.0>
701c189c:	4620      	mov	r0, r4
701c189e:	bd38      	pop	{r3, r4, r5, pc}

701c18a0 <device_type_fip>:
701c18a0:	2004      	movs	r0, #4
701c18a2:	4770      	bx	lr

701c18a4 <fip_file_len>:
701c18a4:	b508      	push	{r3, lr}
701c18a6:	b908      	cbnz	r0, 701c18ac <fip_file_len+0x8>
701c18a8:	f000 fbb4 	bl	701c2014 <__assert>
701c18ac:	2900      	cmp	r1, #0
701c18ae:	d0fb      	beq.n	701c18a8 <fip_file_len+0x4>
701c18b0:	6843      	ldr	r3, [r0, #4]
701c18b2:	2000      	movs	r0, #0
701c18b4:	6a1b      	ldr	r3, [r3, #32]
701c18b6:	600b      	str	r3, [r1, #0]
701c18b8:	bd08      	pop	{r3, pc}

701c18ba <device_type_memmap>:
701c18ba:	2002      	movs	r0, #2
701c18bc:	4770      	bx	lr

701c18be <memmap_dev_close>:
701c18be:	2000      	movs	r0, #0
701c18c0:	4770      	bx	lr

701c18c2 <memmap_block_len>:
701c18c2:	b508      	push	{r3, lr}
701c18c4:	b908      	cbnz	r0, 701c18ca <memmap_block_len+0x8>
701c18c6:	f000 fba5 	bl	701c2014 <__assert>
701c18ca:	2900      	cmp	r1, #0
701c18cc:	d0fb      	beq.n	701c18c6 <memmap_block_len+0x4>
701c18ce:	6843      	ldr	r3, [r0, #4]
701c18d0:	2000      	movs	r0, #0
701c18d2:	691b      	ldr	r3, [r3, #16]
701c18d4:	600b      	str	r3, [r1, #0]
701c18d6:	bd08      	pop	{r3, pc}

701c18d8 <memmap_block_seek>:
701c18d8:	2901      	cmp	r1, #1
701c18da:	b510      	push	{r4, lr}
701c18dc:	d10f      	bne.n	701c18fe <memmap_block_seek+0x26>
701c18de:	b908      	cbnz	r0, 701c18e4 <memmap_block_seek+0xc>
701c18e0:	f000 fb98 	bl	701c2014 <__assert>
701c18e4:	6841      	ldr	r1, [r0, #4]
701c18e6:	2b00      	cmp	r3, #0
701c18e8:	dbfa      	blt.n	701c18e0 <memmap_block_seek+0x8>
701c18ea:	e9d1 4004 	ldrd	r4, r0, [r1, #16]
701c18ee:	42a2      	cmp	r2, r4
701c18f0:	eb73 0000 	sbcs.w	r0, r3, r0
701c18f4:	d2f4      	bcs.n	701c18e0 <memmap_block_seek+0x8>
701c18f6:	2000      	movs	r0, #0
701c18f8:	e9c1 2302 	strd	r2, r3, [r1, #8]
701c18fc:	bd10      	pop	{r4, pc}
701c18fe:	f06f 0001 	mvn.w	r0, #1
701c1902:	e7fb      	b.n	701c18fc <memmap_block_seek+0x24>

701c1904 <memmap_block_write>:
701c1904:	e92d 43f8 	stmdb	sp!, {r3, r4, r5, r6, r7, r8, r9, lr}
701c1908:	4615      	mov	r5, r2
701c190a:	461f      	mov	r7, r3
701c190c:	b908      	cbnz	r0, 701c1912 <memmap_block_write+0xe>
701c190e:	f000 fb81 	bl	701c2014 <__assert>
701c1912:	2b00      	cmp	r3, #0
701c1914:	d0fb      	beq.n	701c190e <memmap_block_write+0xa>
701c1916:	6844      	ldr	r4, [r0, #4]
701c1918:	f04f 0800 	mov.w	r8, #0
701c191c:	e9d4 0602 	ldrd	r0, r6, [r4, #8]
701c1920:	eb10 0902 	adds.w	r9, r0, r2
701c1924:	f156 0600 	adcs.w	r6, r6, #0
701c1928:	d301      	bcc.n	701c192e <memmap_block_write+0x2a>
701c192a:	f04f 0801 	mov.w	r8, #1
701c192e:	f1b8 0f00 	cmp.w	r8, #0
701c1932:	d1ec      	bne.n	701c190e <memmap_block_write+0xa>
701c1934:	e9d4 2304 	ldrd	r2, r3, [r4, #16]
701c1938:	454a      	cmp	r2, r9
701c193a:	41b3      	sbcs	r3, r6
701c193c:	d3e7      	bcc.n	701c190e <memmap_block_write+0xa>
701c193e:	6863      	ldr	r3, [r4, #4]
701c1940:	462a      	mov	r2, r5
701c1942:	4418      	add	r0, r3
701c1944:	f000 fb79 	bl	701c203a <memcpy>
701c1948:	603d      	str	r5, [r7, #0]
701c194a:	4640      	mov	r0, r8
701c194c:	e9c4 9602 	strd	r9, r6, [r4, #8]
701c1950:	e8bd 83f8 	ldmia.w	sp!, {r3, r4, r5, r6, r7, r8, r9, pc}

701c1954 <memmap_block_read>:
701c1954:	e92d 43f8 	stmdb	sp!, {r3, r4, r5, r6, r7, r8, r9, lr}
701c1958:	468c      	mov	ip, r1
701c195a:	4615      	mov	r5, r2
701c195c:	461f      	mov	r7, r3
701c195e:	b908      	cbnz	r0, 701c1964 <memmap_block_read+0x10>
701c1960:	f000 fb58 	bl	701c2014 <__assert>
701c1964:	2b00      	cmp	r3, #0
701c1966:	d0fb      	beq.n	701c1960 <memmap_block_read+0xc>
701c1968:	6844      	ldr	r4, [r0, #4]
701c196a:	f04f 0800 	mov.w	r8, #0
701c196e:	e9d4 1602 	ldrd	r1, r6, [r4, #8]
701c1972:	eb11 0902 	adds.w	r9, r1, r2
701c1976:	f156 0600 	adcs.w	r6, r6, #0
701c197a:	d301      	bcc.n	701c1980 <memmap_block_read+0x2c>
701c197c:	f04f 0801 	mov.w	r8, #1
701c1980:	f1b8 0f00 	cmp.w	r8, #0
701c1984:	d1ec      	bne.n	701c1960 <memmap_block_read+0xc>
701c1986:	e9d4 2304 	ldrd	r2, r3, [r4, #16]
701c198a:	454a      	cmp	r2, r9
701c198c:	41b3      	sbcs	r3, r6
701c198e:	d3e7      	bcc.n	701c1960 <memmap_block_read+0xc>
701c1990:	6863      	ldr	r3, [r4, #4]
701c1992:	462a      	mov	r2, r5
701c1994:	4660      	mov	r0, ip
701c1996:	4419      	add	r1, r3
701c1998:	f000 fb4f 	bl	701c203a <memcpy>
701c199c:	603d      	str	r5, [r7, #0]
701c199e:	4640      	mov	r0, r8
701c19a0:	e9c4 9602 	strd	r9, r6, [r4, #8]
701c19a4:	e8bd 83f8 	ldmia.w	sp!, {r3, r4, r5, r6, r7, r8, r9, pc}

701c19a8 <semihosting_file_open>:
701c19a8:	b51f      	push	{r0, r1, r2, r3, r4, lr}
701c19aa:	9102      	str	r1, [sp, #8]
701c19ac:	9001      	str	r0, [sp, #4]
701c19ae:	f000 fbb2 	bl	701c2116 <strlen>
701c19b2:	a901      	add	r1, sp, #4
701c19b4:	9003      	str	r0, [sp, #12]
701c19b6:	2001      	movs	r0, #1
701c19b8:	f7ff eaa8 	blx	701c0f0c <semihosting_call>
701c19bc:	b005      	add	sp, #20
701c19be:	f85d fb04 	ldr.w	pc, [sp], #4

701c19c2 <semihosting_file_seek>:
701c19c2:	b507      	push	{r0, r1, r2, lr}
701c19c4:	e9cd 0100 	strd	r0, r1, [sp]
701c19c8:	4669      	mov	r1, sp
701c19ca:	200a      	movs	r0, #10
701c19cc:	f7ff ea9e 	blx	701c0f0c <semihosting_call>
701c19d0:	b118      	cbz	r0, 701c19da <semihosting_file_seek+0x18>
701c19d2:	2100      	movs	r1, #0
701c19d4:	2013      	movs	r0, #19
701c19d6:	f7ff ea9a 	blx	701c0f0c <semihosting_call>
701c19da:	b003      	add	sp, #12
701c19dc:	f85d fb04 	ldr.w	pc, [sp], #4

701c19e0 <semihosting_file_read>:
701c19e0:	b51f      	push	{r0, r1, r2, r3, r4, lr}
701c19e2:	460c      	mov	r4, r1
701c19e4:	b919      	cbnz	r1, 701c19ee <semihosting_file_read+0xe>
701c19e6:	f06f 0015 	mvn.w	r0, #21
701c19ea:	b004      	add	sp, #16
701c19ec:	bd10      	pop	{r4, pc}
701c19ee:	2a00      	cmp	r2, #0
701c19f0:	d0f9      	beq.n	701c19e6 <semihosting_file_read+0x6>
701c19f2:	680b      	ldr	r3, [r1, #0]
701c19f4:	a901      	add	r1, sp, #4
701c19f6:	9001      	str	r0, [sp, #4]
701c19f8:	2006      	movs	r0, #6
701c19fa:	9303      	str	r3, [sp, #12]
701c19fc:	9202      	str	r2, [sp, #8]
701c19fe:	f7ff ea86 	blx	701c0f0c <semihosting_call>
701c1a02:	6823      	ldr	r3, [r4, #0]
701c1a04:	4283      	cmp	r3, r0
701c1a06:	d0ee      	beq.n	701c19e6 <semihosting_file_read+0x6>
701c1a08:	d9ef      	bls.n	701c19ea <semihosting_file_read+0xa>
701c1a0a:	1a18      	subs	r0, r3, r0
701c1a0c:	6020      	str	r0, [r4, #0]
701c1a0e:	2000      	movs	r0, #0
701c1a10:	e7eb      	b.n	701c19ea <semihosting_file_read+0xa>

701c1a12 <semihosting_file_write>:
701c1a12:	b51f      	push	{r0, r1, r2, r3, r4, lr}
701c1a14:	460c      	mov	r4, r1
701c1a16:	b151      	cbz	r1, 701c1a2e <semihosting_file_write+0x1c>
701c1a18:	b14a      	cbz	r2, 701c1a2e <semihosting_file_write+0x1c>
701c1a1a:	680b      	ldr	r3, [r1, #0]
701c1a1c:	a901      	add	r1, sp, #4
701c1a1e:	9001      	str	r0, [sp, #4]
701c1a20:	2005      	movs	r0, #5
701c1a22:	9202      	str	r2, [sp, #8]
701c1a24:	9303      	str	r3, [sp, #12]
701c1a26:	f7ff ea72 	blx	701c0f0c <semihosting_call>
701c1a2a:	6020      	str	r0, [r4, #0]
701c1a2c:	b108      	cbz	r0, 701c1a32 <semihosting_file_write+0x20>
701c1a2e:	f06f 0015 	mvn.w	r0, #21
701c1a32:	b004      	add	sp, #16
701c1a34:	bd10      	pop	{r4, pc}

701c1a36 <semihosting_file_close>:
701c1a36:	b507      	push	{r0, r1, r2, lr}
701c1a38:	9001      	str	r0, [sp, #4]
701c1a3a:	a901      	add	r1, sp, #4
701c1a3c:	2002      	movs	r0, #2
701c1a3e:	f7ff ea66 	blx	701c0f0c <semihosting_call>
701c1a42:	b003      	add	sp, #12
701c1a44:	f85d fb04 	ldr.w	pc, [sp], #4

701c1a48 <semihosting_file_length>:
701c1a48:	b507      	push	{r0, r1, r2, lr}
701c1a4a:	9001      	str	r0, [sp, #4]
701c1a4c:	a901      	add	r1, sp, #4
701c1a4e:	200c      	movs	r0, #12
701c1a50:	f7ff ea5c 	blx	701c0f0c <semihosting_call>
701c1a54:	b003      	add	sp, #12
701c1a56:	f85d fb04 	ldr.w	pc, [sp], #4

701c1a5a <bl2_platform_setup>:
701c1a5a:	2001      	movs	r0, #1
701c1a5c:	f7fe bf3a 	b.w	701c08d4 <sys_timer_enable>

701c1a60 <plat_flush_next_bl_params>:
701c1a60:	f7fe be20 	b.w	701c06a4 <flush_bl_params_desc>

701c1a64 <plat_get_bl_image_load_info>:
701c1a64:	f7fe be5c 	b.w	701c0720 <get_bl_load_info_from_mem_params_desc>

701c1a68 <plat_get_next_bl_params>:
701c1a68:	f7fe be82 	b.w	701c0770 <get_next_bl_params_from_mem_params_desc>

701c1a6c <flush_bl_params_desc_args>:
701c1a6c:	b510      	push	{r4, lr}
701c1a6e:	4614      	mov	r4, r2
701c1a70:	b908      	cbnz	r0, 701c1a76 <flush_bl_params_desc_args+0xa>
701c1a72:	f000 facf 	bl	701c2014 <__assert>
701c1a76:	2900      	cmp	r1, #0
701c1a78:	d0fb      	beq.n	701c1a72 <flush_bl_params_desc_args+0x6>
701c1a7a:	2a00      	cmp	r2, #0
701c1a7c:	d0f9      	beq.n	701c1a72 <flush_bl_params_desc_args+0x6>
701c1a7e:	235c      	movs	r3, #92	; 0x5c
701c1a80:	4359      	muls	r1, r3
701c1a82:	f7ff eaee 	blx	701c1060 <flush_dcache_range>
701c1a86:	4620      	mov	r0, r4
701c1a88:	210c      	movs	r1, #12
701c1a8a:	e8bd 4010 	ldmia.w	sp!, {r4, lr}
701c1a8e:	f000 bb67 	b.w	701c2160 <__flush_dcache_range_from_thumb>

701c1a92 <bl2_setup>:
701c1a92:	b508      	push	{r3, lr}
701c1a94:	f7fe fdac 	bl	701c05f0 <bl2_early_platform_setup2>
701c1a98:	e8bd 4008 	ldmia.w	sp!, {r3, lr}
701c1a9c:	f7fe bdba 	b.w	701c0614 <bl2_plat_arch_setup>

701c1aa0 <bl2_main>:
701c1aa0:	b51f      	push	{r0, r1, r2, r3, r4, lr}
701c1aa2:	f000 f813 	bl	701c1acc <bl2_arch_setup>
701c1aa6:	f000 f866 	bl	701c1b76 <bl2_plat_preload_setup>
701c1aaa:	f7fe feb5 	bl	701c0818 <bl2_load_images>
701c1aae:	4604      	mov	r4, r0
701c1ab0:	f7ff eb74 	blx	701c119c <disable_mmu_icache_secure>
701c1ab4:	f7fe ff9e 	bl	701c09f4 <console_flush>
701c1ab8:	2300      	movs	r3, #0
701c1aba:	461a      	mov	r2, r3
701c1abc:	4621      	mov	r1, r4
701c1abe:	2004      	movs	r0, #4
701c1ac0:	9303      	str	r3, [sp, #12]
701c1ac2:	9302      	str	r3, [sp, #8]
701c1ac4:	9301      	str	r3, [sp, #4]
701c1ac6:	9300      	str	r3, [sp, #0]
701c1ac8:	f7ff eb24 	blx	701c1114 <smc>

701c1acc <bl2_arch_setup>:
701c1acc:	4770      	bx	lr

701c1ace <load_auth_image>:
701c1ace:	b5f0      	push	{r4, r5, r6, r7, lr}
701c1ad0:	4606      	mov	r6, r0
701c1ad2:	460d      	mov	r5, r1
701c1ad4:	b087      	sub	sp, #28
701c1ad6:	b90d      	cbnz	r5, 701c1adc <load_auth_image+0xe>
701c1ad8:	f000 fa9c 	bl	701c2014 <__assert>
701c1adc:	786b      	ldrb	r3, [r5, #1]
701c1ade:	2b01      	cmp	r3, #1
701c1ae0:	d9fa      	bls.n	701c1ad8 <load_auth_image+0xa>
701c1ae2:	aa03      	add	r2, sp, #12
701c1ae4:	a901      	add	r1, sp, #4
701c1ae6:	4630      	mov	r0, r6
701c1ae8:	68af      	ldr	r7, [r5, #8]
701c1aea:	f7fe fd3b 	bl	701c0564 <plat_get_image_source>
701c1aee:	4604      	mov	r4, r0
701c1af0:	bb20      	cbnz	r0, 701c1b3c <load_auth_image+0x6e>
701c1af2:	9903      	ldr	r1, [sp, #12]
701c1af4:	aa02      	add	r2, sp, #8
701c1af6:	9801      	ldr	r0, [sp, #4]
701c1af8:	f7fe fb16 	bl	701c0128 <io_open>
701c1afc:	4604      	mov	r4, r0
701c1afe:	b9e8      	cbnz	r0, 701c1b3c <load_auth_image+0x6e>
701c1b00:	9802      	ldr	r0, [sp, #8]
701c1b02:	a904      	add	r1, sp, #16
701c1b04:	f7ff fe86 	bl	701c1814 <io_size>
701c1b08:	b9f8      	cbnz	r0, 701c1b4a <load_auth_image+0x7c>
701c1b0a:	9a04      	ldr	r2, [sp, #16]
701c1b0c:	b172      	cbz	r2, 701c1b2c <load_auth_image+0x5e>
701c1b0e:	692b      	ldr	r3, [r5, #16]
701c1b10:	429a      	cmp	r2, r3
701c1b12:	d81c      	bhi.n	701c1b4e <load_auth_image+0x80>
701c1b14:	9802      	ldr	r0, [sp, #8]
701c1b16:	ab05      	add	r3, sp, #20
701c1b18:	4639      	mov	r1, r7
701c1b1a:	60ea      	str	r2, [r5, #12]
701c1b1c:	f7ff fe8f 	bl	701c183e <io_read>
701c1b20:	4604      	mov	r4, r0
701c1b22:	b920      	cbnz	r0, 701c1b2e <load_auth_image+0x60>
701c1b24:	e9dd 3204 	ldrd	r3, r2, [sp, #16]
701c1b28:	429a      	cmp	r2, r3
701c1b2a:	d300      	bcc.n	701c1b2e <load_auth_image+0x60>
701c1b2c:	2400      	movs	r4, #0
701c1b2e:	9802      	ldr	r0, [sp, #8]
701c1b30:	f7ff fea3 	bl	701c187a <io_close>
701c1b34:	9801      	ldr	r0, [sp, #4]
701c1b36:	f7ff fe3a 	bl	701c17ae <io_dev_close>
701c1b3a:	b15c      	cbz	r4, 701c1b54 <load_auth_image+0x86>
701c1b3c:	f000 f81e 	bl	701c1b7c <plat_try_next_boot_source>
701c1b40:	2800      	cmp	r0, #0
701c1b42:	d1c8      	bne.n	701c1ad6 <load_auth_image+0x8>
701c1b44:	4620      	mov	r0, r4
701c1b46:	b007      	add	sp, #28
701c1b48:	bdf0      	pop	{r4, r5, r6, r7, pc}
701c1b4a:	4604      	mov	r4, r0
701c1b4c:	e7ef      	b.n	701c1b2e <load_auth_image+0x60>
701c1b4e:	f06f 041a 	mvn.w	r4, #26
701c1b52:	e7ec      	b.n	701c1b2e <load_auth_image+0x60>
701c1b54:	68e9      	ldr	r1, [r5, #12]
701c1b56:	68a8      	ldr	r0, [r5, #8]
701c1b58:	f7ff ea82 	blx	701c1060 <flush_dcache_range>
701c1b5c:	e7f2      	b.n	701c1b44 <load_auth_image+0x76>

701c1b5e <console_set_scope>:
701c1b5e:	b508      	push	{r3, lr}
701c1b60:	b908      	cbnz	r0, 701c1b66 <console_set_scope+0x8>
701c1b62:	f000 fa57 	bl	701c2014 <__assert>
701c1b66:	6843      	ldr	r3, [r0, #4]
701c1b68:	f023 03ff 	bic.w	r3, r3, #255	; 0xff
701c1b6c:	430b      	orrs	r3, r1
701c1b6e:	6043      	str	r3, [r0, #4]
701c1b70:	bd08      	pop	{r3, pc}

701c1b72 <plat_error_handler>:
701c1b72:	bf30      	wfi
701c1b74:	e7fd      	b.n	701c1b72 <plat_error_handler>

701c1b76 <bl2_plat_preload_setup>:
701c1b76:	4770      	bx	lr

701c1b78 <bl2_plat_handle_pre_image_load>:
701c1b78:	2000      	movs	r0, #0
701c1b7a:	4770      	bx	lr

701c1b7c <plat_try_next_boot_source>:
701c1b7c:	2000      	movs	r0, #0
701c1b7e:	4770      	bx	lr

701c1b80 <__ctzdi2>:
701c1b80:	fab0 f380 	clz	r3, r0
701c1b84:	095b      	lsrs	r3, r3, #5
701c1b86:	425a      	negs	r2, r3
701c1b88:	3b01      	subs	r3, #1
701c1b8a:	4003      	ands	r3, r0
701c1b8c:	4011      	ands	r1, r2
701c1b8e:	430b      	orrs	r3, r1
701c1b90:	f002 0020 	and.w	r0, r2, #32
701c1b94:	fa93 f3a3 	rbit	r3, r3
701c1b98:	fab3 f383 	clz	r3, r3
701c1b9c:	4418      	add	r0, r3
701c1b9e:	4770      	bx	lr

701c1ba0 <__udivmoddi4>:
701c1ba0:	e92d 41f0 	stmdb	sp!, {r4, r5, r6, r7, r8, lr}
701c1ba4:	9d06      	ldr	r5, [sp, #24]
701c1ba6:	b981      	cbnz	r1, 701c1bca <__udivmoddi4+0x2a>
701c1ba8:	b953      	cbnz	r3, 701c1bc0 <__udivmoddi4+0x20>
701c1baa:	fbb0 f1f2 	udiv	r1, r0, r2
701c1bae:	b11d      	cbz	r5, 701c1bb8 <__udivmoddi4+0x18>
701c1bb0:	fb02 0011 	mls	r0, r2, r1, r0
701c1bb4:	e9c5 0300 	strd	r0, r3, [r5]
701c1bb8:	4608      	mov	r0, r1
701c1bba:	2100      	movs	r1, #0
701c1bbc:	e8bd 81f0 	ldmia.w	sp!, {r4, r5, r6, r7, r8, pc}
701c1bc0:	b10d      	cbz	r5, 701c1bc6 <__udivmoddi4+0x26>
701c1bc2:	e9c5 0100 	strd	r0, r1, [r5]
701c1bc6:	4608      	mov	r0, r1
701c1bc8:	e7f8      	b.n	701c1bbc <__udivmoddi4+0x1c>
701c1bca:	bbba      	cbnz	r2, 701c1c3c <__udivmoddi4+0x9c>
701c1bcc:	b903      	cbnz	r3, 701c1bd0 <__udivmoddi4+0x30>
701c1bce:	deff      	udf	#255	; 0xff
701c1bd0:	b940      	cbnz	r0, 701c1be4 <__udivmoddi4+0x44>
701c1bd2:	fbb1 f2f3 	udiv	r2, r1, r3
701c1bd6:	b11d      	cbz	r5, 701c1be0 <__udivmoddi4+0x40>
701c1bd8:	fb03 1112 	mls	r1, r3, r2, r1
701c1bdc:	e9c5 0100 	strd	r0, r1, [r5]
701c1be0:	4610      	mov	r0, r2
701c1be2:	e7ea      	b.n	701c1bba <__udivmoddi4+0x1a>
701c1be4:	1e5c      	subs	r4, r3, #1
701c1be6:	421c      	tst	r4, r3
701c1be8:	d10a      	bne.n	701c1c00 <__udivmoddi4+0x60>
701c1bea:	b115      	cbz	r5, 701c1bf2 <__udivmoddi4+0x52>
701c1bec:	400c      	ands	r4, r1
701c1bee:	e9c5 0400 	strd	r0, r4, [r5]
701c1bf2:	fa93 f0a3 	rbit	r0, r3
701c1bf6:	fab0 f080 	clz	r0, r0
701c1bfa:	fa21 f000 	lsr.w	r0, r1, r0
701c1bfe:	e7dc      	b.n	701c1bba <__udivmoddi4+0x1a>
701c1c00:	fab3 f483 	clz	r4, r3
701c1c04:	fab1 f681 	clz	r6, r1
701c1c08:	1ba4      	subs	r4, r4, r6
701c1c0a:	2c1e      	cmp	r4, #30
701c1c0c:	d907      	bls.n	701c1c1e <__udivmoddi4+0x7e>
701c1c0e:	2d00      	cmp	r5, #0
701c1c10:	f000 8082 	beq.w	701c1d18 <__udivmoddi4+0x178>
701c1c14:	e9c5 0100 	strd	r0, r1, [r5]
701c1c18:	2000      	movs	r0, #0
701c1c1a:	4601      	mov	r1, r0
701c1c1c:	e7ce      	b.n	701c1bbc <__udivmoddi4+0x1c>
701c1c1e:	f104 0c01 	add.w	ip, r4, #1
701c1c22:	4617      	mov	r7, r2
701c1c24:	f1c4 041f 	rsb	r4, r4, #31
701c1c28:	fa00 f604 	lsl.w	r6, r0, r4
701c1c2c:	fa01 f404 	lsl.w	r4, r1, r4
701c1c30:	fa20 f00c 	lsr.w	r0, r0, ip
701c1c34:	fa21 fe0c 	lsr.w	lr, r1, ip
701c1c38:	4304      	orrs	r4, r0
701c1c3a:	e038      	b.n	701c1cae <__udivmoddi4+0x10e>
701c1c3c:	2b00      	cmp	r3, #0
701c1c3e:	d15c      	bne.n	701c1cfa <__udivmoddi4+0x15a>
701c1c40:	1e54      	subs	r4, r2, #1
701c1c42:	ea14 0602 	ands.w	r6, r4, r2
701c1c46:	d111      	bne.n	701c1c6c <__udivmoddi4+0xcc>
701c1c48:	b115      	cbz	r5, 701c1c50 <__udivmoddi4+0xb0>
701c1c4a:	4004      	ands	r4, r0
701c1c4c:	e9c5 4600 	strd	r4, r6, [r5]
701c1c50:	2a01      	cmp	r2, #1
701c1c52:	d0b3      	beq.n	701c1bbc <__udivmoddi4+0x1c>
701c1c54:	fa92 f2a2 	rbit	r2, r2
701c1c58:	fab2 f282 	clz	r2, r2
701c1c5c:	f1c2 0320 	rsb	r3, r2, #32
701c1c60:	40d0      	lsrs	r0, r2
701c1c62:	fa01 f303 	lsl.w	r3, r1, r3
701c1c66:	4318      	orrs	r0, r3
701c1c68:	40d1      	lsrs	r1, r2
701c1c6a:	e7a7      	b.n	701c1bbc <__udivmoddi4+0x1c>
701c1c6c:	fab1 f681 	clz	r6, r1
701c1c70:	fab2 f482 	clz	r4, r2
701c1c74:	1ba4      	subs	r4, r4, r6
701c1c76:	f104 0c21 	add.w	ip, r4, #33	; 0x21
701c1c7a:	1c66      	adds	r6, r4, #1
701c1c7c:	d104      	bne.n	701c1c88 <__udivmoddi4+0xe8>
701c1c7e:	461f      	mov	r7, r3
701c1c80:	4606      	mov	r6, r0
701c1c82:	469e      	mov	lr, r3
701c1c84:	460c      	mov	r4, r1
701c1c86:	e012      	b.n	701c1cae <__udivmoddi4+0x10e>
701c1c88:	f1bc 0f1f 	cmp.w	ip, #31
701c1c8c:	d803      	bhi.n	701c1c96 <__udivmoddi4+0xf6>
701c1c8e:	461f      	mov	r7, r3
701c1c90:	f1cc 0420 	rsb	r4, ip, #32
701c1c94:	e7c8      	b.n	701c1c28 <__udivmoddi4+0x88>
701c1c96:	f1cc 0640 	rsb	r6, ip, #64	; 0x40
701c1c9a:	3401      	adds	r4, #1
701c1c9c:	469e      	mov	lr, r3
701c1c9e:	fa00 f706 	lsl.w	r7, r0, r6
701c1ca2:	40e0      	lsrs	r0, r4
701c1ca4:	fa01 f606 	lsl.w	r6, r1, r6
701c1ca8:	4306      	orrs	r6, r0
701c1caa:	fa21 f404 	lsr.w	r4, r1, r4
701c1cae:	2000      	movs	r0, #0
701c1cb0:	0fe1      	lsrs	r1, r4, #31
701c1cb2:	ea41 0e4e 	orr.w	lr, r1, lr, lsl #1
701c1cb6:	0ff1      	lsrs	r1, r6, #31
701c1cb8:	ea41 0444 	orr.w	r4, r1, r4, lsl #1
701c1cbc:	0ff9      	lsrs	r1, r7, #31
701c1cbe:	ea41 0646 	orr.w	r6, r1, r6, lsl #1
701c1cc2:	43e1      	mvns	r1, r4
701c1cc4:	1889      	adds	r1, r1, r2
701c1cc6:	ea40 0747 	orr.w	r7, r0, r7, lsl #1
701c1cca:	eb63 010e 	sbc.w	r1, r3, lr
701c1cce:	ea02 78e1 	and.w	r8, r2, r1, asr #31
701c1cd2:	0fc8      	lsrs	r0, r1, #31
701c1cd4:	ebb4 0408 	subs.w	r4, r4, r8
701c1cd8:	ea03 71e1 	and.w	r1, r3, r1, asr #31
701c1cdc:	eb6e 0e01 	sbc.w	lr, lr, r1
701c1ce0:	f1bc 0c01 	subs.w	ip, ip, #1
701c1ce4:	d1e4      	bne.n	701c1cb0 <__udivmoddi4+0x110>
701c1ce6:	19ff      	adds	r7, r7, r7
701c1ce8:	eb46 0106 	adc.w	r1, r6, r6
701c1cec:	4338      	orrs	r0, r7
701c1cee:	2d00      	cmp	r5, #0
701c1cf0:	f43f af64 	beq.w	701c1bbc <__udivmoddi4+0x1c>
701c1cf4:	e9c5 4e00 	strd	r4, lr, [r5]
701c1cf8:	e760      	b.n	701c1bbc <__udivmoddi4+0x1c>
701c1cfa:	fab3 f483 	clz	r4, r3
701c1cfe:	fab1 f681 	clz	r6, r1
701c1d02:	1ba4      	subs	r4, r4, r6
701c1d04:	2c1f      	cmp	r4, #31
701c1d06:	d882      	bhi.n	701c1c0e <__udivmoddi4+0x6e>
701c1d08:	f104 0c01 	add.w	ip, r4, #1
701c1d0c:	f04f 0700 	mov.w	r7, #0
701c1d10:	d1be      	bne.n	701c1c90 <__udivmoddi4+0xf0>
701c1d12:	4606      	mov	r6, r0
701c1d14:	46be      	mov	lr, r7
701c1d16:	e7b5      	b.n	701c1c84 <__udivmoddi4+0xe4>
701c1d18:	4628      	mov	r0, r5
701c1d1a:	e77e      	b.n	701c1c1a <__udivmoddi4+0x7a>

701c1d1c <xlat_arch_get_max_supported_pa>:
701c1d1c:	f04f 30ff 	mov.w	r0, #4294967295	; 0xffffffff
701c1d20:	21ff      	movs	r1, #255	; 0xff
701c1d22:	4770      	bx	lr

701c1d24 <xlat_get_min_virt_addr_space_size>:
701c1d24:	f04f 7000 	mov.w	r0, #33554432	; 0x2000000
701c1d28:	4770      	bx	lr

701c1d2a <is_dcache_enabled>:
701c1d2a:	f3ef 8300 	mrs	r3, CPSR
701c1d2e:	f003 031f 	and.w	r3, r3, #31
701c1d32:	2b1a      	cmp	r3, #26
701c1d34:	d104      	bne.n	701c1d40 <is_dcache_enabled+0x16>
701c1d36:	ee91 0f10 	mrc	15, 4, r0, cr1, cr0, {0}
701c1d3a:	f3c0 0080 	ubfx	r0, r0, #2, #1
701c1d3e:	4770      	bx	lr
701c1d40:	ee11 0f10 	mrc	15, 0, r0, cr1, cr0, {0}
701c1d44:	e7f9      	b.n	701c1d3a <is_dcache_enabled+0x10>

701c1d46 <xlat_arch_regime_get_xn_desc>:
701c1d46:	2801      	cmp	r0, #1
701c1d48:	b508      	push	{r3, lr}
701c1d4a:	d003      	beq.n	701c1d54 <xlat_arch_regime_get_xn_desc+0xe>
701c1d4c:	2802      	cmp	r0, #2
701c1d4e:	d005      	beq.n	701c1d5c <xlat_arch_regime_get_xn_desc+0x16>
701c1d50:	f000 f960 	bl	701c2014 <__assert>
701c1d54:	2000      	movs	r0, #0
701c1d56:	f44f 01c0 	mov.w	r1, #6291456	; 0x600000
701c1d5a:	bd08      	pop	{r3, pc}
701c1d5c:	2000      	movs	r0, #0
701c1d5e:	f44f 0180 	mov.w	r1, #4194304	; 0x400000
701c1d62:	e7fa      	b.n	701c1d5a <xlat_arch_regime_get_xn_desc+0x14>

701c1d64 <xlat_arch_current_el>:
701c1d64:	b508      	push	{r3, lr}
701c1d66:	f3ef 8300 	mrs	r3, CPSR
701c1d6a:	f003 031f 	and.w	r3, r3, #31
701c1d6e:	2b1a      	cmp	r3, #26
701c1d70:	d00d      	beq.n	701c1d8e <xlat_arch_current_el+0x2a>
701c1d72:	f3ef 8300 	mrs	r3, CPSR
701c1d76:	f003 031f 	and.w	r3, r3, #31
701c1d7a:	2b13      	cmp	r3, #19
701c1d7c:	d009      	beq.n	701c1d92 <xlat_arch_current_el+0x2e>
701c1d7e:	f3ef 8300 	mrs	r3, CPSR
701c1d82:	f003 031f 	and.w	r3, r3, #31
701c1d86:	2b16      	cmp	r3, #22
701c1d88:	d003      	beq.n	701c1d92 <xlat_arch_current_el+0x2e>
701c1d8a:	f000 f943 	bl	701c2014 <__assert>
701c1d8e:	2002      	movs	r0, #2
701c1d90:	bd08      	pop	{r3, pc}
701c1d92:	2001      	movs	r0, #1
701c1d94:	e7fc      	b.n	701c1d90 <xlat_arch_current_el+0x2c>

701c1d96 <is_mmu_enabled_ctx>:
701c1d96:	b508      	push	{r3, lr}
701c1d98:	6bc3      	ldr	r3, [r0, #60]	; 0x3c
701c1d9a:	2b01      	cmp	r3, #1
701c1d9c:	d10a      	bne.n	701c1db4 <is_mmu_enabled_ctx+0x1e>
701c1d9e:	f7ff ffe1 	bl	701c1d64 <xlat_arch_current_el>
701c1da2:	2801      	cmp	r0, #1
701c1da4:	d001      	beq.n	701c1daa <is_mmu_enabled_ctx+0x14>
701c1da6:	f000 f935 	bl	701c2014 <__assert>
701c1daa:	ee11 0f10 	mrc	15, 0, r0, cr1, cr0, {0}
701c1dae:	f000 0001 	and.w	r0, r0, #1
701c1db2:	bd08      	pop	{r3, pc}
701c1db4:	2b02      	cmp	r3, #2
701c1db6:	d1f6      	bne.n	701c1da6 <is_mmu_enabled_ctx+0x10>
701c1db8:	f7ff ffd4 	bl	701c1d64 <xlat_arch_current_el>
701c1dbc:	2802      	cmp	r0, #2
701c1dbe:	d1f2      	bne.n	701c1da6 <is_mmu_enabled_ctx+0x10>
701c1dc0:	ee91 0f10 	mrc	15, 4, r0, cr1, cr0, {0}
701c1dc4:	e7f3      	b.n	701c1dae <is_mmu_enabled_ctx+0x18>

701c1dc6 <xlat_clean_dcache_range>:
701c1dc6:	b538      	push	{r3, r4, r5, lr}
701c1dc8:	4604      	mov	r4, r0
701c1dca:	460d      	mov	r5, r1
701c1dcc:	f7ff ffad 	bl	701c1d2a <is_dcache_enabled>
701c1dd0:	b128      	cbz	r0, 701c1dde <xlat_clean_dcache_range+0x18>
701c1dd2:	4629      	mov	r1, r5
701c1dd4:	4620      	mov	r0, r4
701c1dd6:	e8bd 4038 	ldmia.w	sp!, {r3, r4, r5, lr}
701c1dda:	f000 b9cd 	b.w	701c2178 <__clean_dcache_range_from_thumb>
701c1dde:	bd38      	pop	{r3, r4, r5, pc}

701c1de0 <xlat_desc>:
701c1de0:	b5f8      	push	{r3, r4, r5, r6, r7, lr}
701c1de2:	460d      	mov	r5, r1
701c1de4:	9e06      	ldr	r6, [sp, #24]
701c1de6:	f06f 0108 	mvn.w	r1, #8
701c1dea:	4371      	muls	r1, r6
701c1dec:	f101 0427 	add.w	r4, r1, #39	; 0x27
701c1df0:	2101      	movs	r1, #1
701c1df2:	40a1      	lsls	r1, r4
701c1df4:	3901      	subs	r1, #1
701c1df6:	4011      	ands	r1, r2
701c1df8:	d001      	beq.n	701c1dfe <xlat_desc+0x1e>
701c1dfa:	f000 f90b 	bl	701c2014 <__assert>
701c1dfe:	2e03      	cmp	r6, #3
701c1e00:	f04f 0703 	mov.w	r7, #3
701c1e04:	bf18      	it	ne
701c1e06:	2701      	movne	r7, #1
701c1e08:	196c      	adds	r4, r5, r5
701c1e0a:	f004 0420 	and.w	r4, r4, #32
701c1e0e:	f015 0f08 	tst.w	r5, #8
701c1e12:	6bc0      	ldr	r0, [r0, #60]	; 0x3c
701c1e14:	ea44 0402 	orr.w	r4, r4, r2
701c1e18:	460e      	mov	r6, r1
701c1e1a:	ea44 0407 	orr.w	r4, r4, r7
701c1e1e:	bf08      	it	eq
701c1e20:	2180      	moveq	r1, #128	; 0x80
701c1e22:	431e      	orrs	r6, r3
701c1e24:	430c      	orrs	r4, r1
701c1e26:	2801      	cmp	r0, #1
701c1e28:	d10f      	bne.n	701c1e4a <xlat_desc+0x6a>
701c1e2a:	066b      	lsls	r3, r5, #25
701c1e2c:	d410      	bmi.n	701c1e50 <xlat_desc+0x70>
701c1e2e:	f444 6480 	orr.w	r4, r4, #1024	; 0x400
701c1e32:	4631      	mov	r1, r6
701c1e34:	f015 0707 	ands.w	r7, r5, #7
701c1e38:	d10d      	bne.n	701c1e56 <xlat_desc+0x76>
701c1e3a:	f7ff ff84 	bl	701c1d46 <xlat_arch_regime_get_xn_desc>
701c1e3e:	4304      	orrs	r4, r0
701c1e40:	f444 7401 	orr.w	r4, r4, #516	; 0x204
701c1e44:	4331      	orrs	r1, r6
701c1e46:	4620      	mov	r0, r4
701c1e48:	bdf8      	pop	{r3, r4, r5, r6, r7, pc}
701c1e4a:	1e83      	subs	r3, r0, #2
701c1e4c:	2b01      	cmp	r3, #1
701c1e4e:	d8d4      	bhi.n	701c1dfa <xlat_desc+0x1a>
701c1e50:	f444 6488 	orr.w	r4, r4, #1088	; 0x440
701c1e54:	e7ed      	b.n	701c1e32 <xlat_desc+0x52>
701c1e56:	f015 0f28 	tst.w	r5, #40	; 0x28
701c1e5a:	d003      	beq.n	701c1e64 <xlat_desc+0x84>
701c1e5c:	f7ff ff73 	bl	701c1d46 <xlat_arch_regime_get_xn_desc>
701c1e60:	4304      	orrs	r4, r0
701c1e62:	4331      	orrs	r1, r6
701c1e64:	2f02      	cmp	r7, #2
701c1e66:	d10d      	bne.n	701c1e84 <xlat_desc+0xa4>
701c1e68:	f405 73c0 	and.w	r3, r5, #384	; 0x180
701c1e6c:	f5b3 7fc0 	cmp.w	r3, #384	; 0x180
701c1e70:	d0e9      	beq.n	701c1e46 <xlat_desc+0x66>
701c1e72:	f5b3 7f80 	cmp.w	r3, #256	; 0x100
701c1e76:	d102      	bne.n	701c1e7e <xlat_desc+0x9e>
701c1e78:	f444 7400 	orr.w	r4, r4, #512	; 0x200
701c1e7c:	e7e3      	b.n	701c1e46 <xlat_desc+0x66>
701c1e7e:	f444 7440 	orr.w	r4, r4, #768	; 0x300
701c1e82:	e7e0      	b.n	701c1e46 <xlat_desc+0x66>
701c1e84:	2f01      	cmp	r7, #1
701c1e86:	d1b8      	bne.n	701c1dfa <xlat_desc+0x1a>
701c1e88:	f444 7402 	orr.w	r4, r4, #520	; 0x208
701c1e8c:	e7db      	b.n	701c1e46 <xlat_desc+0x66>

701c1e8e <xlat_tables_map_region>:
701c1e8e:	e92d 4ff0 	stmdb	sp!, {r4, r5, r6, r7, r8, r9, sl, fp, lr}
701c1e92:	460e      	mov	r6, r1
701c1e94:	6b41      	ldr	r1, [r0, #52]	; 0x34
701c1e96:	b089      	sub	sp, #36	; 0x24
701c1e98:	4607      	mov	r7, r0
701c1e9a:	f8dd 904c 	ldr.w	r9, [sp, #76]	; 0x4c
701c1e9e:	4549      	cmp	r1, r9
701c1ea0:	d802      	bhi.n	701c1ea8 <xlat_tables_map_region+0x1a>
701c1ea2:	f1b9 0f03 	cmp.w	r9, #3
701c1ea6:	d901      	bls.n	701c1eac <xlat_tables_map_region+0x1e>
701c1ea8:	f000 f8b4 	bl	701c2014 <__assert>
701c1eac:	f06f 0a08 	mvn.w	sl, #8
701c1eb0:	e9d6 0102 	ldrd	r0, r1, [r6, #8]
701c1eb4:	fb0a fa09 	mul.w	sl, sl, r9
701c1eb8:	4401      	add	r1, r0
701c1eba:	4290      	cmp	r0, r2
701c1ebc:	f101 31ff 	add.w	r1, r1, #4294967295	; 0xffffffff
701c1ec0:	f10a 0a27 	add.w	sl, sl, #39	; 0x27
701c1ec4:	9105      	str	r1, [sp, #20]
701c1ec6:	f04f 0101 	mov.w	r1, #1
701c1eca:	fa01 f10a 	lsl.w	r1, r1, sl
701c1ece:	9103      	str	r1, [sp, #12]
701c1ed0:	d939      	bls.n	701c1f46 <xlat_tables_map_region+0xb8>
701c1ed2:	424c      	negs	r4, r1
701c1ed4:	4004      	ands	r4, r0
701c1ed6:	1aa2      	subs	r2, r4, r2
701c1ed8:	fa22 f50a 	lsr.w	r5, r2, sl
701c1edc:	9a03      	ldr	r2, [sp, #12]
701c1ede:	eb03 08c5 	add.w	r8, r3, r5, lsl #3
701c1ee2:	3a01      	subs	r2, #1
701c1ee4:	f109 0301 	add.w	r3, r9, #1
701c1ee8:	9206      	str	r2, [sp, #24]
701c1eea:	9304      	str	r3, [sp, #16]
701c1eec:	9b12      	ldr	r3, [sp, #72]	; 0x48
701c1eee:	429d      	cmp	r5, r3
701c1ef0:	d26e      	bcs.n	701c1fd0 <xlat_tables_map_region+0x142>
701c1ef2:	68b3      	ldr	r3, [r6, #8]
701c1ef4:	68f2      	ldr	r2, [r6, #12]
701c1ef6:	f8d8 0000 	ldr.w	r0, [r8]
701c1efa:	42a3      	cmp	r3, r4
701c1efc:	441a      	add	r2, r3
701c1efe:	f102 3eff 	add.w	lr, r2, #4294967295	; 0xffffffff
701c1f02:	9a03      	ldr	r2, [sp, #12]
701c1f04:	f000 0103 	and.w	r1, r0, #3
701c1f08:	eb04 0b02 	add.w	fp, r4, r2
701c1f0c:	f10b 3cff 	add.w	ip, fp, #4294967295	; 0xffffffff
701c1f10:	d860      	bhi.n	701c1fd4 <xlat_tables_map_region+0x146>
701c1f12:	45e6      	cmp	lr, ip
701c1f14:	d35e      	bcc.n	701c1fd4 <xlat_tables_map_region+0x146>
701c1f16:	6832      	ldr	r2, [r6, #0]
701c1f18:	1ad2      	subs	r2, r2, r3
701c1f1a:	6873      	ldr	r3, [r6, #4]
701c1f1c:	f163 0300 	sbc.w	r3, r3, #0
701c1f20:	1912      	adds	r2, r2, r4
701c1f22:	f143 0300 	adc.w	r3, r3, #0
701c1f26:	f1b9 0f03 	cmp.w	r9, #3
701c1f2a:	d10e      	bne.n	701c1f4a <xlat_tables_map_region+0xbc>
701c1f2c:	2903      	cmp	r1, #3
701c1f2e:	d048      	beq.n	701c1fc2 <xlat_tables_map_region+0x134>
701c1f30:	2900      	cmp	r1, #0
701c1f32:	d1b9      	bne.n	701c1ea8 <xlat_tables_map_region+0x1a>
701c1f34:	6931      	ldr	r1, [r6, #16]
701c1f36:	4638      	mov	r0, r7
701c1f38:	f8cd 9000 	str.w	r9, [sp]
701c1f3c:	f7ff ff50 	bl	701c1de0 <xlat_desc>
701c1f40:	e9c8 0100 	strd	r0, r1, [r8]
701c1f44:	e03d      	b.n	701c1fc2 <xlat_tables_map_region+0x134>
701c1f46:	4614      	mov	r4, r2
701c1f48:	e7c5      	b.n	701c1ed6 <xlat_tables_map_region+0x48>
701c1f4a:	2903      	cmp	r1, #3
701c1f4c:	d04f      	beq.n	701c1fee <xlat_tables_map_region+0x160>
701c1f4e:	2900      	cmp	r1, #0
701c1f50:	d134      	bne.n	701c1fbc <xlat_tables_map_region+0x12e>
701c1f52:	9906      	ldr	r1, [sp, #24]
701c1f54:	420a      	tst	r2, r1
701c1f56:	d106      	bne.n	701c1f66 <xlat_tables_map_region+0xd8>
701c1f58:	f1b9 0f00 	cmp.w	r9, #0
701c1f5c:	d003      	beq.n	701c1f66 <xlat_tables_map_region+0xd8>
701c1f5e:	6971      	ldr	r1, [r6, #20]
701c1f60:	fa31 f10a 	lsrs.w	r1, r1, sl
701c1f64:	d1e6      	bne.n	701c1f34 <xlat_tables_map_region+0xa6>
701c1f66:	e9d7 2306 	ldrd	r2, r3, [r7, #24]
701c1f6a:	4293      	cmp	r3, r2
701c1f6c:	da9c      	bge.n	701c1ea8 <xlat_tables_map_region+0x1a>
701c1f6e:	697a      	ldr	r2, [r7, #20]
701c1f70:	1c59      	adds	r1, r3, #1
701c1f72:	61f9      	str	r1, [r7, #28]
701c1f74:	eb12 3303 	adds.w	r3, r2, r3, lsl #12
701c1f78:	d01c      	beq.n	701c1fb4 <xlat_tables_map_region+0x126>
701c1f7a:	f043 0203 	orr.w	r2, r3, #3
701c1f7e:	f8c8 2000 	str.w	r2, [r8]
701c1f82:	2200      	movs	r2, #0
701c1f84:	f8c8 2004 	str.w	r2, [r8, #4]
701c1f88:	9a04      	ldr	r2, [sp, #16]
701c1f8a:	4631      	mov	r1, r6
701c1f8c:	9201      	str	r2, [sp, #4]
701c1f8e:	4638      	mov	r0, r7
701c1f90:	f44f 7200 	mov.w	r2, #512	; 0x200
701c1f94:	9200      	str	r2, [sp, #0]
701c1f96:	4622      	mov	r2, r4
701c1f98:	9307      	str	r3, [sp, #28]
701c1f9a:	f7ff ff78 	bl	701c1e8e <xlat_tables_map_region>
701c1f9e:	9b07      	ldr	r3, [sp, #28]
701c1fa0:	4604      	mov	r4, r0
701c1fa2:	f44f 5180 	mov.w	r1, #4096	; 0x1000
701c1fa6:	4618      	mov	r0, r3
701c1fa8:	f7ff ff0d 	bl	701c1dc6 <xlat_clean_dcache_range>
701c1fac:	f10b 33ff 	add.w	r3, fp, #4294967295	; 0xffffffff
701c1fb0:	429c      	cmp	r4, r3
701c1fb2:	d006      	beq.n	701c1fc2 <xlat_tables_map_region+0x134>
701c1fb4:	4620      	mov	r0, r4
701c1fb6:	b009      	add	sp, #36	; 0x24
701c1fb8:	e8bd 8ff0 	ldmia.w	sp!, {r4, r5, r6, r7, r8, r9, sl, fp, pc}
701c1fbc:	2901      	cmp	r1, #1
701c1fbe:	f47f af73 	bne.w	701c1ea8 <xlat_tables_map_region+0x1a>
701c1fc2:	9b05      	ldr	r3, [sp, #20]
701c1fc4:	3501      	adds	r5, #1
701c1fc6:	f108 0808 	add.w	r8, r8, #8
701c1fca:	465c      	mov	r4, fp
701c1fcc:	455b      	cmp	r3, fp
701c1fce:	d88d      	bhi.n	701c1eec <xlat_tables_map_region+0x5e>
701c1fd0:	3c01      	subs	r4, #1
701c1fd2:	e7ef      	b.n	701c1fb4 <xlat_tables_map_region+0x126>
701c1fd4:	4563      	cmp	r3, ip
701c1fd6:	d901      	bls.n	701c1fdc <xlat_tables_map_region+0x14e>
701c1fd8:	4574      	cmp	r4, lr
701c1fda:	d8f2      	bhi.n	701c1fc2 <xlat_tables_map_region+0x134>
701c1fdc:	f1b9 0f03 	cmp.w	r9, #3
701c1fe0:	f43f af62 	beq.w	701c1ea8 <xlat_tables_map_region+0x1a>
701c1fe4:	2900      	cmp	r1, #0
701c1fe6:	d0be      	beq.n	701c1f66 <xlat_tables_map_region+0xd8>
701c1fe8:	2903      	cmp	r1, #3
701c1fea:	f47f af5d 	bne.w	701c1ea8 <xlat_tables_map_region+0x1a>
701c1fee:	f420 637f 	bic.w	r3, r0, #4080	; 0xff0
701c1ff2:	f023 030f 	bic.w	r3, r3, #15
701c1ff6:	e7c7      	b.n	701c1f88 <xlat_tables_map_region+0xfa>

701c1ff8 <mmap_add_ctx>:
701c1ff8:	b538      	push	{r3, r4, r5, lr}
701c1ffa:	4605      	mov	r5, r0
701c1ffc:	460c      	mov	r4, r1
701c1ffe:	6963      	ldr	r3, [r4, #20]
701c2000:	b903      	cbnz	r3, 701c2004 <mmap_add_ctx+0xc>
701c2002:	bd38      	pop	{r3, r4, r5, pc}
701c2004:	4621      	mov	r1, r4
701c2006:	4628      	mov	r0, r5
701c2008:	3418      	adds	r4, #24
701c200a:	f7fe fe09 	bl	701c0c20 <mmap_add_region_ctx>
701c200e:	e7f6      	b.n	701c1ffe <mmap_add_ctx+0x6>

701c2010 <xlat_mmap_print>:
701c2010:	4770      	bx	lr

701c2012 <xlat_tables_print>:
701c2012:	4770      	bx	lr

701c2014 <__assert>:
701c2014:	b508      	push	{r3, lr}
701c2016:	f7fe fced 	bl	701c09f4 <console_flush>
701c201a:	f7ff e97c 	blx	701c1314 <plat_panic_handler>

701c201e <memcmp>:
701c201e:	4402      	add	r2, r0
701c2020:	b510      	push	{r4, lr}
701c2022:	4290      	cmp	r0, r2
701c2024:	d101      	bne.n	701c202a <memcmp+0xc>
701c2026:	2000      	movs	r0, #0
701c2028:	e006      	b.n	701c2038 <memcmp+0x1a>
701c202a:	f810 3b01 	ldrb.w	r3, [r0], #1
701c202e:	f811 4b01 	ldrb.w	r4, [r1], #1
701c2032:	42a3      	cmp	r3, r4
701c2034:	d0f5      	beq.n	701c2022 <memcmp+0x4>
701c2036:	1b18      	subs	r0, r3, r4
701c2038:	bd10      	pop	{r4, pc}

701c203a <memcpy>:
701c203a:	1e43      	subs	r3, r0, #1
701c203c:	440a      	add	r2, r1
701c203e:	b510      	push	{r4, lr}
701c2040:	4291      	cmp	r1, r2
701c2042:	d100      	bne.n	701c2046 <memcpy+0xc>
701c2044:	bd10      	pop	{r4, pc}
701c2046:	f811 4b01 	ldrb.w	r4, [r1], #1
701c204a:	f803 4f01 	strb.w	r4, [r3, #1]!
701c204e:	e7f7      	b.n	701c2040 <memcpy+0x6>

701c2050 <memmove>:
701c2050:	b470      	push	{r4, r5, r6}
701c2052:	1a46      	subs	r6, r0, r1
701c2054:	4605      	mov	r5, r0
701c2056:	460c      	mov	r4, r1
701c2058:	4613      	mov	r3, r2
701c205a:	4296      	cmp	r6, r2
701c205c:	d302      	bcc.n	701c2064 <memmove+0x14>
701c205e:	bc70      	pop	{r4, r5, r6}
701c2060:	f7ff bfeb 	b.w	701c203a <memcpy>
701c2064:	4414      	add	r4, r2
701c2066:	4403      	add	r3, r0
701c2068:	429d      	cmp	r5, r3
701c206a:	d102      	bne.n	701c2072 <memmove+0x22>
701c206c:	4628      	mov	r0, r5
701c206e:	bc70      	pop	{r4, r5, r6}
701c2070:	4770      	bx	lr
701c2072:	f814 2d01 	ldrb.w	r2, [r4, #-1]!
701c2076:	f803 2d01 	strb.w	r2, [r3, #-1]!
701c207a:	e7f5      	b.n	701c2068 <memmove+0x18>

701c207c <unsigned_num_print>:
701c207c:	e92d 4ff0 	stmdb	sp!, {r4, r5, r6, r7, r8, r9, sl, fp, lr}
701c2080:	4606      	mov	r6, r0
701c2082:	460d      	mov	r5, r1
701c2084:	b087      	sub	sp, #28
701c2086:	4690      	mov	r8, r2
701c2088:	f10d 0a04 	add.w	sl, sp, #4
701c208c:	4699      	mov	r9, r3
701c208e:	2400      	movs	r4, #0
701c2090:	46d3      	mov	fp, sl
701c2092:	9f10      	ldr	r7, [sp, #64]	; 0x40
701c2094:	4642      	mov	r2, r8
701c2096:	2300      	movs	r3, #0
701c2098:	4630      	mov	r0, r6
701c209a:	4629      	mov	r1, r5
701c209c:	f7ff e884 	blx	701c11a8 <__aeabi_uldivmod>
701c20a0:	b2d3      	uxtb	r3, r2
701c20a2:	2a09      	cmp	r2, #9
701c20a4:	f104 0401 	add.w	r4, r4, #1
701c20a8:	bf98      	it	ls
701c20aa:	3330      	addls	r3, #48	; 0x30
701c20ac:	bf88      	it	hi
701c20ae:	3357      	addhi	r3, #87	; 0x57
701c20b0:	4546      	cmp	r6, r8
701c20b2:	b2db      	uxtb	r3, r3
701c20b4:	f80a 3b01 	strb.w	r3, [sl], #1
701c20b8:	f175 0300 	sbcs.w	r3, r5, #0
701c20bc:	d209      	bcs.n	701c20d2 <unsigned_num_print+0x56>
701c20be:	2f00      	cmp	r7, #0
701c20c0:	dc15      	bgt.n	701c20ee <unsigned_num_print+0x72>
701c20c2:	2500      	movs	r5, #0
701c20c4:	4626      	mov	r6, r4
701c20c6:	3e01      	subs	r6, #1
701c20c8:	d213      	bcs.n	701c20f2 <unsigned_num_print+0x76>
701c20ca:	1960      	adds	r0, r4, r5
701c20cc:	b007      	add	sp, #28
701c20ce:	e8bd 8ff0 	ldmia.w	sp!, {r4, r5, r6, r7, r8, r9, sl, fp, pc}
701c20d2:	4606      	mov	r6, r0
701c20d4:	460d      	mov	r5, r1
701c20d6:	e7dd      	b.n	701c2094 <unsigned_num_print+0x18>
701c20d8:	3d01      	subs	r5, #1
701c20da:	4648      	mov	r0, r9
701c20dc:	f000 f80e 	bl	701c20fc <putchar>
701c20e0:	42a5      	cmp	r5, r4
701c20e2:	dcf9      	bgt.n	701c20d8 <unsigned_num_print+0x5c>
701c20e4:	1b3d      	subs	r5, r7, r4
701c20e6:	42bc      	cmp	r4, r7
701c20e8:	bfc8      	it	gt
701c20ea:	2500      	movgt	r5, #0
701c20ec:	e7ea      	b.n	701c20c4 <unsigned_num_print+0x48>
701c20ee:	463d      	mov	r5, r7
701c20f0:	e7f6      	b.n	701c20e0 <unsigned_num_print+0x64>
701c20f2:	f81b 0006 	ldrb.w	r0, [fp, r6]
701c20f6:	f000 f801 	bl	701c20fc <putchar>
701c20fa:	e7e4      	b.n	701c20c6 <unsigned_num_print+0x4a>

701c20fc <putchar>:
701c20fc:	b510      	push	{r4, lr}
701c20fe:	4604      	mov	r4, r0
701c2100:	b2c0      	uxtb	r0, r0
701c2102:	f7fe fc4b 	bl	701c099c <console_putc>
701c2106:	f04f 33ff 	mov.w	r3, #4294967295	; 0xffffffff
701c210a:	2800      	cmp	r0, #0
701c210c:	bfa8      	it	ge
701c210e:	4620      	movge	r0, r4
701c2110:	bfb8      	it	lt
701c2112:	4618      	movlt	r0, r3
701c2114:	bd10      	pop	{r4, pc}

701c2116 <strlen>:
701c2116:	4603      	mov	r3, r0
701c2118:	461a      	mov	r2, r3
701c211a:	3301      	adds	r3, #1
701c211c:	7811      	ldrb	r1, [r2, #0]
701c211e:	2900      	cmp	r1, #0
701c2120:	d1fa      	bne.n	701c2118 <strlen+0x2>
701c2122:	1a10      	subs	r0, r2, r0
701c2124:	4770      	bx	lr
	...

701c2140 <bl2_vector_table>:
701c2140:	eafff7ae 	b	701c0000 <bl2_entrypoint>
701c2144:	eafffb85 	b	701c0f60 <report_exception>
701c2148:	eafffb84 	b	701c0f60 <report_exception>
701c214c:	eafffb88 	b	701c0f74 <report_prefetch_abort>
701c2150:	eafffb8b 	b	701c0f84 <report_data_abort>
701c2154:	eafffb81 	b	701c0f60 <report_exception>
701c2158:	eafffb80 	b	701c0f60 <report_exception>
701c215c:	eafffb7f 	b	701c0f60 <report_exception>

701c2160 <__flush_dcache_range_from_thumb>:
701c2160:	4778      	bx	pc
701c2162:	e7fd      	b.n	701c2160 <__flush_dcache_range_from_thumb>
701c2164:	eafffbbd 	b	701c1060 <flush_dcache_range>

701c2168 <__enable_mmu_direct_svc_mon_from_thumb>:
701c2168:	4778      	bx	pc
701c216a:	e7fd      	b.n	701c2168 <__enable_mmu_direct_svc_mon_from_thumb>
701c216c:	eafffcb6 	b	701c144c <enable_mmu_direct_svc_mon>

701c2170 <__console_putc_from_arm>:
701c2170:	e51ff004 	ldr	pc, [pc, #-4]	; 701c2174 <__console_putc_from_arm+0x4>
701c2174:	701c099d 	.word	0x701c099d

701c2178 <__clean_dcache_range_from_thumb>:
701c2178:	4778      	bx	pc
701c217a:	e7fd      	b.n	701c2178 <__clean_dcache_range_from_thumb>
701c217c:	eafffbc6 	b	701c109c <clean_dcache_range>

701c2180 <__console_register_from_arm>:
701c2180:	e51ff004 	ldr	pc, [pc, #-4]	; 701c2184 <__console_register_from_arm+0x4>
701c2184:	701c0965 	.word	0x701c0965
	...
