
Debug/Exe/km0_image/km0_application.axf:     file format elf32-littlearm


Disassembly of section A3 rw:

00085000 <IMAGE2$$Base>:
   85000:	0c00db01 	.word	0x0c00db01
	...

0008500c <RAM_IMG2_VALID_PATTEN>:
   8500c:	574b5452 ff006e69 00010100 01018195     RTKWin..........
   8501c:	00000000                                ....

00085020 <?Veneer 0 (3) for ipc_send_message>:
   85020:	b408      	push	{r3}
   85022:	4b02      	ldr	r3, [pc, #8]	; (8502c <?Veneer 0 (3) for ipc_send_message+0xc>)
   85024:	469c      	mov	ip, r3
   85026:	bc08      	pop	{r3}
   85028:	4760      	bx	ip
   8502a:	46c0      	nop			; (mov r8, r8)
   8502c:	0c002395 	.word	0x0c002395

00085030 <?Veneer 1 (3) for km4_status_on>:
   85030:	b408      	push	{r3}
   85032:	4b02      	ldr	r3, [pc, #8]	; (8503c <?Veneer 1 (3) for km4_status_on+0xc>)
   85034:	469c      	mov	ip, r3
   85036:	bc08      	pop	{r3}
   85038:	4760      	bx	ip
   8503a:	46c0      	nop			; (mov r8, r8)
   8503c:	0c001da5 	.word	0x0c001da5

00085040 <FLASH_Write_IPC_Int>:
   85040:	f3ef 8010 	mrs	r0, PRIMASK
   85044:	2800      	cmp	r0, #0
   85046:	d104      	bne.n	85052 <FLASH_Write_IPC_Int+0x12>
   85048:	b672      	cpsid	i
   8504a:	bf20      	wfe
   8504c:	bf20      	wfe
   8504e:	b662      	cpsie	i
   85050:	4770      	bx	lr
   85052:	bf20      	wfe
   85054:	bf20      	wfe
   85056:	4770      	bx	lr

00085058 <FLASH_Write_Lock>:
   85058:	b580      	push	{r7, lr}
   8505a:	f77e f80a 	bl	3072 <IPC_INTGet+0x3>
   8505e:	b672      	cpsid	i
   85060:	490e      	ldr	r1, [pc, #56]	; (8509c <.image2.ram.text_18>)
   85062:	680a      	ldr	r2, [r1, #0]
   85064:	4b0e      	ldr	r3, [pc, #56]	; (850a0 <.image2.ram.text_19>)
   85066:	601a      	str	r2, [r3, #0]
   85068:	2200      	movs	r2, #0
   8506a:	600a      	str	r2, [r1, #0]
   8506c:	2801      	cmp	r0, #1
   8506e:	d108      	bne.n	85082 <FLASH_Write_Lock+0x2a>
   85070:	2100      	movs	r1, #0
   85072:	2002      	movs	r0, #2
   85074:	f7ff ffd4 	bl	85020 <?Veneer 0 (3) for ipc_send_message>
   85078:	480a      	ldr	r0, [pc, #40]	; (850a4 <.image2.ram.text_20>)
   8507a:	6800      	ldr	r0, [r0, #0]
   8507c:	06c0      	lsls	r0, r0, #27
   8507e:	d5fb      	bpl.n	85078 <FLASH_Write_Lock+0x20>
   85080:	bd01      	pop	{r0, pc}
   85082:	f7ff ffd5 	bl	85030 <?Veneer 1 (3) for km4_status_on>
   85086:	2800      	cmp	r0, #0
   85088:	d0fa      	beq.n	85080 <FLASH_Write_Lock+0x28>
   8508a:	2100      	movs	r1, #0
   8508c:	2002      	movs	r0, #2
   8508e:	f7ff ffc7 	bl	85020 <?Veneer 0 (3) for ipc_send_message>
   85092:	4805      	ldr	r0, [pc, #20]	; (850a8 <.image2.ram.text_21>)
   85094:	6800      	ldr	r0, [r0, #0]
   85096:	07c0      	lsls	r0, r0, #31
   85098:	d5fb      	bpl.n	85092 <FLASH_Write_Lock+0x3a>
   8509a:	bd01      	pop	{r0, pc}

0008509c <.image2.ram.text_18>:
   8509c:	e000e010 	.word	0xe000e010

000850a0 <.image2.ram.text_19>:
   850a0:	0008b6e0 	.word	0x0008b6e0

000850a4 <.image2.ram.text_20>:
   850a4:	48000204 	.word	0x48000204

000850a8 <.image2.ram.text_21>:
   850a8:	4000000c 	.word	0x4000000c

000850ac <FLASH_ClockSwitch>:
   850ac:	b5f2      	push	{r1, r4, r5, r6, r7, lr}
   850ae:	b131      	cbz	r1, 850be <FLASH_ClockSwitch+0x12>
   850b0:	b672      	cpsid	i
   850b2:	4931      	ldr	r1, [pc, #196]	; (85178 <.image2.ram.text_30>)
   850b4:	6809      	ldr	r1, [r1, #0]
   850b6:	2201      	movs	r2, #1
   850b8:	4391      	bics	r1, r2
   850ba:	4a2f      	ldr	r2, [pc, #188]	; (85178 <.image2.ram.text_30>)
   850bc:	6011      	str	r1, [r2, #0]
   850be:	4c2f      	ldr	r4, [pc, #188]	; (8517c <.image2.ram.text_31>)
   850c0:	4d2f      	ldr	r5, [pc, #188]	; (85180 <.image2.ram.text_32>)
   850c2:	4e30      	ldr	r6, [pc, #192]	; (85184 <.image2.ram.text_33>)
   850c4:	f240 2100 	movw	r1, #512	; 0x200
   850c8:	4288      	cmp	r0, r1
   850ca:	d11a      	bne.n	85102 <FLASH_ClockSwitch+0x56>
   850cc:	6830      	ldr	r0, [r6, #0]
   850ce:	4005      	ands	r5, r0
   850d0:	4329      	orrs	r1, r5
   850d2:	6031      	str	r1, [r6, #0]
   850d4:	200a      	movs	r0, #10
   850d6:	f77c f9f4 	bl	14c2 <DelayNop+0xd>
   850da:	68b0      	ldr	r0, [r6, #8]
   850dc:	492a      	ldr	r1, [pc, #168]	; (85188 <.image2.ram.text_34>)
   850de:	4001      	ands	r1, r0
   850e0:	60b1      	str	r1, [r6, #8]
   850e2:	2000      	movs	r0, #0
   850e4:	f77f fd6c 	bl	4bc0 <FLASH_CalibrationPhaseIdx+0x17>
   850e8:	6820      	ldr	r0, [r4, #0]
   850ea:	2108      	movs	r1, #8
   850ec:	4388      	bics	r0, r1
   850ee:	6020      	str	r0, [r4, #0]
   850f0:	6820      	ldr	r0, [r4, #0]
   850f2:	4926      	ldr	r1, [pc, #152]	; (8518c <.image2.ram.text_35>)
   850f4:	4001      	ands	r1, r0
   850f6:	6021      	str	r1, [r4, #0]
   850f8:	2001      	movs	r0, #1
   850fa:	4925      	ldr	r1, [pc, #148]	; (85190 <.image2.ram.text_36>)
   850fc:	7748      	strb	r0, [r1, #29]
   850fe:	4608      	mov	r0, r1
   85100:	e025      	b.n	8514e <FLASH_ClockSwitch+0xa2>
   85102:	004f      	lsls	r7, r1, #1
   85104:	42b8      	cmp	r0, r7
   85106:	d125      	bne.n	85154 <FLASH_ClockSwitch+0xa8>
   85108:	6820      	ldr	r0, [r4, #0]
   8510a:	0149      	lsls	r1, r1, #5
   8510c:	4301      	orrs	r1, r0
   8510e:	6021      	str	r1, [r4, #0]
   85110:	6820      	ldr	r0, [r4, #0]
   85112:	2108      	movs	r1, #8
   85114:	4301      	orrs	r1, r0
   85116:	6021      	str	r1, [r4, #0]
   85118:	2001      	movs	r0, #1
   8511a:	f77f fd51 	bl	4bc0 <FLASH_CalibrationPhaseIdx+0x17>
   8511e:	68b0      	ldr	r0, [r6, #8]
   85120:	f243 0100 	movw	r1, #12288	; 0x3000
   85124:	4301      	orrs	r1, r0
   85126:	60b1      	str	r1, [r6, #8]
   85128:	2014      	movs	r0, #20
   8512a:	68b1      	ldr	r1, [r6, #8]
   8512c:	1e40      	subs	r0, r0, #1
   8512e:	220c      	movs	r2, #12
   85130:	400a      	ands	r2, r1
   85132:	2a0c      	cmp	r2, #12
   85134:	d001      	beq.n	8513a <FLASH_ClockSwitch+0x8e>
   85136:	2800      	cmp	r0, #0
   85138:	d1f7      	bne.n	8512a <FLASH_ClockSwitch+0x7e>
   8513a:	6830      	ldr	r0, [r6, #0]
   8513c:	4005      	ands	r5, r0
   8513e:	432f      	orrs	r7, r5
   85140:	6037      	str	r7, [r6, #0]
   85142:	200a      	movs	r0, #10
   85144:	f77c f9bd 	bl	14c2 <DelayNop+0xd>
   85148:	4811      	ldr	r0, [pc, #68]	; (85190 <.image2.ram.text_36>)
   8514a:	7f01      	ldrb	r1, [r0, #28]
   8514c:	7741      	strb	r1, [r0, #29]
   8514e:	7901      	ldrb	r1, [r0, #4]
   85150:	f77c fd9e 	bl	1c90 <FLASH_SW_CS_Control+0x3f>
   85154:	9800      	ldr	r0, [sp, #0]
   85156:	b128      	cbz	r0, 85164 <FLASH_ClockSwitch+0xb8>
   85158:	4807      	ldr	r0, [pc, #28]	; (85178 <.image2.ram.text_30>)
   8515a:	6801      	ldr	r1, [r0, #0]
   8515c:	2201      	movs	r2, #1
   8515e:	430a      	orrs	r2, r1
   85160:	6002      	str	r2, [r0, #0]
   85162:	b662      	cpsie	i
   85164:	bdf1      	pop	{r0, r4, r5, r6, r7, pc}
	...

00085168 <FLASH_Invalidate_Auto_Write>:
   85168:	2000      	movs	r0, #0
   8516a:	490a      	ldr	r1, [pc, #40]	; (85194 <.image2.ram.text_37>)
   8516c:	6008      	str	r0, [r1, #0]
   8516e:	31ec      	adds	r1, #236	; 0xec
   85170:	6008      	str	r0, [r1, #0]
   85172:	6148      	str	r0, [r1, #20]
   85174:	4770      	bx	lr
	...

00085178 <.image2.ram.text_30>:
   85178:	e000e010 	.word	0xe000e010

0008517c <.image2.ram.text_31>:
   8517c:	480002c0 	.word	0x480002c0

00085180 <.image2.ram.text_32>:
   85180:	fffff9ff 	.word	0xfffff9ff

00085184 <.image2.ram.text_33>:
   85184:	48000210 	.word	0x48000210

00085188 <.image2.ram.text_34>:
   85188:	ffffcfff 	.word	0xffffcfff

0008518c <.image2.ram.text_35>:
   8518c:	ffffbfff 	.word	0xffffbfff

00085190 <.image2.ram.text_36>:
   85190:	000801f8 	.word	0x000801f8

00085194 <.image2.ram.text_37>:
   85194:	48080008 	.word	0x48080008

00085198 <_flash_calibration_highspeed>:
   85198:	b5f8      	push	{r3, r4, r5, r6, r7, lr}
   8519a:	b084      	sub	sp, #16
   8519c:	0005      	movs	r5, r0
   8519e:	000e      	movs	r6, r1
   851a0:	2000      	movs	r0, #0
   851a2:	9000      	str	r0, [sp, #0]
   851a4:	9003      	str	r0, [sp, #12]
   851a6:	201e      	movs	r0, #30
   851a8:	f77f fc9c 	bl	4ae4 <FLASH_ClockDiv+0x9b>
   851ac:	4c8b      	ldr	r4, [pc, #556]	; (853dc <.image2.ram.text_8>)
   851ae:	4669      	mov	r1, sp
   851b0:	724d      	strb	r5, [r1, #9]
   851b2:	720e      	strb	r6, [r1, #8]
   851b4:	2500      	movs	r5, #0
   851b6:	9f00      	ldr	r7, [sp, #0]
   851b8:	2601      	movs	r6, #1
   851ba:	2001      	movs	r0, #1
   851bc:	9001      	str	r0, [sp, #4]
   851be:	b2f0      	uxtb	r0, r6
   851c0:	9000      	str	r0, [sp, #0]
   851c2:	2302      	movs	r3, #2
   851c4:	4668      	mov	r0, sp
   851c6:	7a02      	ldrb	r2, [r0, #8]
   851c8:	7a41      	ldrb	r1, [r0, #9]
   851ca:	0020      	movs	r0, r4
   851cc:	f77f fd16 	bl	4bfc <FLASH_CalibrationNewCmd+0x3b>
   851d0:	b2c0      	uxtb	r0, r0
   851d2:	2158      	movs	r1, #88	; 0x58
   851d4:	5c61      	ldrb	r1, [r4, r1]
   851d6:	b119      	cbz	r1, 851e0 <_flash_calibration_highspeed+0x48>
   851d8:	2201      	movs	r2, #1
   851da:	430a      	orrs	r2, r1
   851dc:	2158      	movs	r1, #88	; 0x58
   851de:	5462      	strb	r2, [r4, r1]
   851e0:	4285      	cmp	r5, r0
   851e2:	d203      	bcs.n	851ec <_flash_calibration_highspeed+0x54>
   851e4:	0005      	movs	r5, r0
   851e6:	9603      	str	r6, [sp, #12]
   851e8:	2058      	movs	r0, #88	; 0x58
   851ea:	5c27      	ldrb	r7, [r4, r0]
   851ec:	2000      	movs	r0, #0
   851ee:	2158      	movs	r1, #88	; 0x58
   851f0:	5460      	strb	r0, [r4, r1]
   851f2:	1c76      	adds	r6, r6, #1
   851f4:	2e06      	cmp	r6, #6
   851f6:	d3e0      	bcc.n	851ba <_flash_calibration_highspeed+0x22>
   851f8:	002a      	movs	r2, r5
   851fa:	9d03      	ldr	r5, [sp, #12]
   851fc:	d00b      	beq.n	85216 <_flash_calibration_highspeed+0x7e>
   851fe:	003b      	movs	r3, r7
   85200:	0029      	movs	r1, r5
   85202:	4877      	ldr	r0, [pc, #476]	; (853e0 <.image2.ram.text_9>)
   85204:	f77b f936 	bl	474 <DiagVSprintf+0x35f>
   85208:	2058      	movs	r0, #88	; 0x58
   8520a:	5427      	strb	r7, [r4, r0]
   8520c:	7725      	strb	r5, [r4, #28]
   8520e:	7f20      	ldrb	r0, [r4, #28]
   85210:	7760      	strb	r0, [r4, #29]
   85212:	2001      	movs	r0, #1
   85214:	e002      	b.n	8521c <_flash_calibration_highspeed+0x84>
   85216:	2001      	movs	r0, #1
   85218:	7760      	strb	r0, [r4, #29]
   8521a:	2000      	movs	r0, #0
   8521c:	b005      	add	sp, #20
   8521e:	bdf0      	pop	{r4, r5, r6, r7, pc}

00085220 <flash_calibration_highspeed>:
   85220:	b5f1      	push	{r0, r4, r5, r6, r7, lr}
   85222:	b082      	sub	sp, #8
   85224:	2601      	movs	r6, #1
   85226:	486d      	ldr	r0, [pc, #436]	; (853dc <.image2.ram.text_8>)
   85228:	7900      	ldrb	r0, [r0, #4]
   8522a:	4669      	mov	r1, sp
   8522c:	7008      	strb	r0, [r1, #0]
   8522e:	4c6d      	ldr	r4, [pc, #436]	; (853e4 <.image2.ram.text_10>)
   85230:	2000      	movs	r0, #0
   85232:	7020      	strb	r0, [r4, #0]
   85234:	4668      	mov	r0, sp
   85236:	7a00      	ldrb	r0, [r0, #8]
   85238:	f77f fc06 	bl	4a48 <CPU_ClkGet+0x23>
   8523c:	0475      	lsls	r5, r6, #17
   8523e:	4f6a      	ldr	r7, [pc, #424]	; (853e8 <.image2.ram.text_11>)
   85240:	4668      	mov	r0, sp
   85242:	7a01      	ldrb	r1, [r0, #8]
   85244:	7800      	ldrb	r0, [r0, #0]
   85246:	f7ff ffa7 	bl	85198 <_flash_calibration_highspeed>
   8524a:	2801      	cmp	r0, #1
   8524c:	d110      	bne.n	85270 <flash_calibration_highspeed+0x50>
   8524e:	f77f fcb7 	bl	4bc0 <FLASH_CalibrationPhaseIdx+0x17>
   85252:	7860      	ldrb	r0, [r4, #1]
   85254:	f77f fca8 	bl	4ba8 <FLASH_CalibrationPhase+0x8b>
   85258:	4668      	mov	r0, sp
   8525a:	7800      	ldrb	r0, [r0, #0]
   8525c:	f77d f940 	bl	24e0 <FLASH_StructInit+0x8f>
   85260:	6838      	ldr	r0, [r7, #0]
   85262:	4005      	ands	r5, r0
   85264:	d012      	beq.n	8528c <flash_calibration_highspeed+0x6c>
   85266:	bf00      	nop
   85268:	a065      	add	r0, pc, #404	; (adr r0, 85400 <.image2.ram.text_17>)
   8526a:	f77b f903 	bl	474 <DiagVSprintf+0x35f>
   8526e:	e00d      	b.n	8528c <flash_calibration_highspeed+0x6c>
   85270:	485e      	ldr	r0, [pc, #376]	; (853ec <.image2.ram.text_12>)
   85272:	6801      	ldr	r1, [r0, #0]
   85274:	4a5e      	ldr	r2, [pc, #376]	; (853f0 <.image2.ram.text_13>)
   85276:	400a      	ands	r2, r1
   85278:	0a29      	lsrs	r1, r5, #8
   8527a:	4311      	orrs	r1, r2
   8527c:	6001      	str	r1, [r0, #0]
   8527e:	6838      	ldr	r0, [r7, #0]
   85280:	4005      	ands	r5, r0
   85282:	d002      	beq.n	8528a <flash_calibration_highspeed+0x6a>
   85284:	a064      	add	r0, pc, #400	; (adr r0, 85418 <.image2.ram.text_18>)
   85286:	f77b f8f5 	bl	474 <DiagVSprintf+0x35f>
   8528a:	2600      	movs	r6, #0
   8528c:	0030      	movs	r0, r6
   8528e:	bdfe      	pop	{r1, r2, r3, r4, r5, r6, r7, pc}

00085290 <flash_rx_mode_switch>:
   85290:	b5f0      	push	{r4, r5, r6, r7, lr}
   85292:	b085      	sub	sp, #20
   85294:	2101      	movs	r1, #1
   85296:	9104      	str	r1, [sp, #16]
   85298:	2100      	movs	r1, #0
   8529a:	466a      	mov	r2, sp
   8529c:	7011      	strb	r1, [r2, #0]
   8529e:	4f4f      	ldr	r7, [pc, #316]	; (853dc <.image2.ram.text_8>)
   852a0:	0039      	movs	r1, r7
   852a2:	3157      	adds	r1, #87	; 0x57
   852a4:	9101      	str	r1, [sp, #4]
   852a6:	0006      	movs	r6, r0
   852a8:	e00c      	b.n	852c4 <flash_rx_mode_switch+0x34>
   852aa:	2057      	movs	r0, #87	; 0x57
   852ac:	5c38      	ldrb	r0, [r7, r0]
   852ae:	b140      	cbz	r0, 852c2 <flash_rx_mode_switch+0x32>
   852b0:	484d      	ldr	r0, [pc, #308]	; (853e8 <.image2.ram.text_11>)
   852b2:	6800      	ldr	r0, [r0, #0]
   852b4:	0380      	lsls	r0, r0, #14
   852b6:	d504      	bpl.n	852c2 <flash_rx_mode_switch+0x32>
   852b8:	0031      	movs	r1, r6
   852ba:	bf00      	nop
   852bc:	a060      	add	r0, pc, #384	; (adr r0, 85440 <.image2.ram.text_20>)
   852be:	f77b f8d9 	bl	474 <DiagVSprintf+0x35f>
   852c2:	1c76      	adds	r6, r6, #1
   852c4:	2e04      	cmp	r6, #4
   852c6:	dc7a      	bgt.n	853be <flash_rx_mode_switch+0x12e>
   852c8:	2402      	movs	r4, #2
   852ca:	b966      	cbnz	r6, 852e6 <flash_rx_mode_switch+0x56>
   852cc:	2001      	movs	r0, #1
   852ce:	9901      	ldr	r1, [sp, #4]
   852d0:	70c8      	strb	r0, [r1, #3]
   852d2:	f640 2010 	movw	r0, #2576	; 0xa10
   852d6:	64b8      	str	r0, [r7, #72]	; 0x48
   852d8:	2020      	movs	r0, #32
   852da:	5c3d      	ldrb	r5, [r7, r0]
   852dc:	1ea8      	subs	r0, r5, #2
   852de:	2120      	movs	r1, #32
   852e0:	5478      	strb	r0, [r7, r1]
   852e2:	20eb      	movs	r0, #235	; 0xeb
   852e4:	e02a      	b.n	8533c <flash_rx_mode_switch+0xac>
   852e6:	2508      	movs	r5, #8
   852e8:	2e01      	cmp	r6, #1
   852ea:	d109      	bne.n	85300 <flash_rx_mode_switch+0x70>
   852ec:	2000      	movs	r0, #0
   852ee:	9901      	ldr	r1, [sp, #4]
   852f0:	70c8      	strb	r0, [r1, #3]
   852f2:	f240 2008 	movw	r0, #520	; 0x208
   852f6:	64b8      	str	r0, [r7, #72]	; 0x48
   852f8:	2120      	movs	r1, #32
   852fa:	547d      	strb	r5, [r7, r1]
   852fc:	206b      	movs	r0, #107	; 0x6b
   852fe:	e01d      	b.n	8533c <flash_rx_mode_switch+0xac>
   85300:	2e02      	cmp	r6, #2
   85302:	d10a      	bne.n	8531a <flash_rx_mode_switch+0x8a>
   85304:	2401      	movs	r4, #1
   85306:	9901      	ldr	r1, [sp, #4]
   85308:	70cc      	strb	r4, [r1, #3]
   8530a:	f641 2001 	movw	r0, #6657	; 0x1a01
   8530e:	6478      	str	r0, [r7, #68]	; 0x44
   85310:	7ffd      	ldrb	r5, [r7, #31]
   85312:	1f28      	subs	r0, r5, #4
   85314:	77f8      	strb	r0, [r7, #31]
   85316:	20bb      	movs	r0, #187	; 0xbb
   85318:	e010      	b.n	8533c <flash_rx_mode_switch+0xac>
   8531a:	2e03      	cmp	r6, #3
   8531c:	d109      	bne.n	85332 <flash_rx_mode_switch+0xa2>
   8531e:	2000      	movs	r0, #0
   85320:	9901      	ldr	r1, [sp, #4]
   85322:	70c8      	strb	r0, [r1, #3]
   85324:	f240 2002 	movw	r0, #514	; 0x202
   85328:	6478      	str	r0, [r7, #68]	; 0x44
   8532a:	77fd      	strb	r5, [r7, #31]
   8532c:	2401      	movs	r4, #1
   8532e:	203b      	movs	r0, #59	; 0x3b
   85330:	e004      	b.n	8533c <flash_rx_mode_switch+0xac>
   85332:	2400      	movs	r4, #0
   85334:	9901      	ldr	r1, [sp, #4]
   85336:	70cc      	strb	r4, [r1, #3]
   85338:	7fbd      	ldrb	r5, [r7, #30]
   8533a:	2003      	movs	r0, #3
   8533c:	60b8      	str	r0, [r7, #8]
   8533e:	6838      	ldr	r0, [r7, #0]
   85340:	2803      	cmp	r0, #3
   85342:	d111      	bne.n	85368 <flash_rx_mode_switch+0xd8>
   85344:	466a      	mov	r2, sp
   85346:	2101      	movs	r1, #1
   85348:	2085      	movs	r0, #133	; 0x85
   8534a:	f77c fce7 	bl	1d1c <FLASH_SetSpiMode+0x8b>
   8534e:	4668      	mov	r0, sp
   85350:	7800      	ldrb	r0, [r0, #0]
   85352:	0700      	lsls	r0, r0, #28
   85354:	0f00      	lsrs	r0, r0, #28
   85356:	0129      	lsls	r1, r5, #4
   85358:	4301      	orrs	r1, r0
   8535a:	4668      	mov	r0, sp
   8535c:	7001      	strb	r1, [r0, #0]
   8535e:	466a      	mov	r2, sp
   85360:	2101      	movs	r1, #1
   85362:	2081      	movs	r0, #129	; 0x81
   85364:	f77c fee0 	bl	2128 <FLASH_TxData12B+0xdf>
   85368:	2001      	movs	r0, #1
   8536a:	7778      	strb	r0, [r7, #29]
   8536c:	0020      	movs	r0, r4
   8536e:	f77d f8b7 	bl	24e0 <FLASH_StructInit+0x8f>
   85372:	4820      	ldr	r0, [pc, #128]	; (853f4 <.image2.ram.text_14>)
   85374:	6800      	ldr	r0, [r0, #0]
   85376:	03c0      	lsls	r0, r0, #15
   85378:	d509      	bpl.n	8538e <flash_rx_mode_switch+0xfe>
   8537a:	f3bf 8f4f 	dsb	sy
   8537e:	2080      	movs	r0, #128	; 0x80
   85380:	0500      	lsls	r0, r0, #20
   85382:	491d      	ldr	r1, [pc, #116]	; (853f8 <.image2.ram.text_15>)
   85384:	6008      	str	r0, [r1, #0]
   85386:	f3bf 8f4f 	dsb	sy
   8538a:	f3bf 8f6f 	isb	sy
   8538e:	2080      	movs	r0, #128	; 0x80
   85390:	0500      	lsls	r0, r0, #20
   85392:	6800      	ldr	r0, [r0, #0]
   85394:	9002      	str	r0, [sp, #8]
   85396:	2080      	movs	r0, #128	; 0x80
   85398:	0500      	lsls	r0, r0, #20
   8539a:	6840      	ldr	r0, [r0, #4]
   8539c:	9003      	str	r0, [sp, #12]
   8539e:	2208      	movs	r2, #8
   853a0:	4916      	ldr	r1, [pc, #88]	; (853fc <.image2.ram.text_16>)
   853a2:	a802      	add	r0, sp, #8
   853a4:	f781 f8ce 	bl	6544 <_memchr+0x7f>
   853a8:	2800      	cmp	r0, #0
   853aa:	d000      	beq.n	853ae <flash_rx_mode_switch+0x11e>
   853ac:	e77d      	b.n	852aa <flash_rx_mode_switch+0x1a>
   853ae:	480e      	ldr	r0, [pc, #56]	; (853e8 <.image2.ram.text_11>)
   853b0:	6800      	ldr	r0, [r0, #0]
   853b2:	0380      	lsls	r0, r0, #14
   853b4:	d503      	bpl.n	853be <flash_rx_mode_switch+0x12e>
   853b6:	0031      	movs	r1, r6
   853b8:	a01d      	add	r0, pc, #116	; (adr r0, 85430 <.image2.ram.text_19>)
   853ba:	f77b f85b 	bl	474 <DiagVSprintf+0x35f>
   853be:	2e05      	cmp	r6, #5
   853c0:	d109      	bne.n	853d6 <flash_rx_mode_switch+0x146>
   853c2:	4809      	ldr	r0, [pc, #36]	; (853e8 <.image2.ram.text_11>)
   853c4:	6800      	ldr	r0, [r0, #0]
   853c6:	0380      	lsls	r0, r0, #14
   853c8:	d503      	bpl.n	853d2 <flash_rx_mode_switch+0x142>
   853ca:	bf00      	nop
   853cc:	a021      	add	r0, pc, #132	; (adr r0, 85454 <.image2.ram.text_21>)
   853ce:	f77b f851 	bl	474 <DiagVSprintf+0x35f>
   853d2:	2000      	movs	r0, #0
   853d4:	9004      	str	r0, [sp, #16]
   853d6:	9804      	ldr	r0, [sp, #16]
   853d8:	b005      	add	sp, #20
   853da:	bdf0      	pop	{r4, r5, r6, r7, pc}

000853dc <.image2.ram.text_8>:
   853dc:	000801f8 	.word	0x000801f8

000853e0 <.image2.ram.text_9>:
   853e0:	00085d44 	.word	0x00085d44

000853e4 <.image2.ram.text_10>:
   853e4:	0008024f 	.word	0x0008024f

000853e8 <.image2.ram.text_11>:
   853e8:	000801cc 	.word	0x000801cc

000853ec <.image2.ram.text_12>:
   853ec:	48000210 	.word	0x48000210

000853f0 <.image2.ram.text_13>:
   853f0:	fffff9ff 	.word	0xfffff9ff

000853f4 <.image2.ram.text_14>:
   853f4:	e000ed14 	.word	0xe000ed14

000853f8 <.image2.ram.text_15>:
   853f8:	e000ef5c 	.word	0xe000ef5c

000853fc <.image2.ram.text_16>:
   853fc:	00020064 	.word	0x00020064

00085400 <.image2.ram.text_17>:
   85400:	414c460d 	.word	0x414c460d
   85404:	43204853 	.word	0x43204853
   85408:	42494c41 	.word	0x42494c41
   8540c:	57454e5b 	.word	0x57454e5b
   85410:	5d4b4f20 	.word	0x5d4b4f20
   85414:	000a      	.short	0x000a
	...

00085418 <.image2.ram.text_18>:
   85418:	414c460d 	.word	0x414c460d
   8541c:	43204853 	.word	0x43204853
   85420:	42494c41 	.word	0x42494c41
   85424:	57454e5b 	.word	0x57454e5b
   85428:	49414620 	.word	0x49414620
   8542c:	000a5d4c 	.word	0x000a5d4c

00085430 <.image2.ram.text_19>:
   85430:	6165720d 	.word	0x6165720d
   85434:	6f6d5f64 	.word	0x6f6d5f64
   85438:	253a6564 	.word	0x253a6564
   8543c:	0a64      	.short	0x0a64
	...

00085440 <.image2.ram.text_20>:
   85440:	6165720d 	.word	0x6165720d
   85444:	6f6d2064 	.word	0x6f6d2064
   85448:	25206564 	.word	0x25206564
   8544c:	61662064 	.word	0x61662064
   85450:	000a6c69 	.word	0x000a6c69

00085454 <.image2.ram.text_21>:
   85454:	616c460d 	.word	0x616c460d
   85458:	72206873 	.word	0x72206873
   8545c:	20646165 	.word	0x20646165
   85460:	65646f6d 	.word	0x65646f6d
   85464:	69777320 	.word	0x69777320
   85468:	20686374 	.word	0x20686374
   8546c:	4c494146 	.word	0x4c494146
   85470:	0a21      	.short	0x0a21
	...

00085474 <?Veneer 3 (3) for km4_flash_highspeed_resume>:
   85474:	b408      	push	{r3}
   85476:	4b02      	ldr	r3, [pc, #8]	; (85480 <?Veneer 3 (3) for km4_flash_highspeed_resume+0xc>)
   85478:	469c      	mov	ip, r3
   8547a:	bc08      	pop	{r3}
   8547c:	4760      	bx	ip
   8547e:	46c0      	nop			; (mov r8, r8)
   85480:	0c001f89 	.word	0x0c001f89

00085484 <?Veneer 4 (3) for pmu_exec_sleep_hook_funs>:
   85484:	b408      	push	{r3}
   85486:	4b02      	ldr	r3, [pc, #8]	; (85490 <?Veneer 4 (3) for pmu_exec_sleep_hook_funs+0xc>)
   85488:	469c      	mov	ip, r3
   8548a:	bc08      	pop	{r3}
   8548c:	4760      	bx	ip
   8548e:	46c0      	nop			; (mov r8, r8)
   85490:	0c000e39 	.word	0x0c000e39

00085494 <?Veneer 5 (3) for pmu_exec_wakeup_hook_funs>:
   85494:	b408      	push	{r3}
   85496:	4b02      	ldr	r3, [pc, #8]	; (854a0 <?Veneer 5 (3) for pmu_exec_wakeup_hook_funs+0xc>)
   85498:	469c      	mov	ip, r3
   8549a:	bc08      	pop	{r3}
   8549c:	4760      	bx	ip
   8549e:	46c0      	nop			; (mov r8, r8)
   854a0:	0c000e5d 	.word	0x0c000e5d

000854a4 <?Veneer 6 (3) for km4_set_wake_event>:
   854a4:	b408      	push	{r3}
   854a6:	4b02      	ldr	r3, [pc, #8]	; (854b0 <?Veneer 6 (3) for km4_set_wake_event+0xc>)
   854a8:	469c      	mov	ip, r3
   854aa:	bc08      	pop	{r3}
   854ac:	4760      	bx	ip
   854ae:	46c0      	nop			; (mov r8, r8)
   854b0:	0c001f25 	.word	0x0c001f25

000854b4 <SOCPS_SWR_PFMForce>:
   854b4:	4770      	bx	lr

000854b6 <SOCPS_SNOOZE_Config>:
   854b6:	4a84      	ldr	r2, [pc, #528]	; (856c8 <.image2.ram.text_27>)
   854b8:	6813      	ldr	r3, [r2, #0]
   854ba:	2901      	cmp	r1, #1
   854bc:	d101      	bne.n	854c2 <SOCPS_SNOOZE_Config+0xc>
   854be:	4318      	orrs	r0, r3
   854c0:	e001      	b.n	854c6 <SOCPS_SNOOZE_Config+0x10>
   854c2:	4383      	bics	r3, r0
   854c4:	0018      	movs	r0, r3
   854c6:	6010      	str	r0, [r2, #0]
   854c8:	4770      	bx	lr

000854ca <SOCPS_AONWakeReason>:
   854ca:	4880      	ldr	r0, [pc, #512]	; (856cc <.image2.ram.text_29>)
   854cc:	6800      	ldr	r0, [r0, #0]
   854ce:	4770      	bx	lr

000854d0 <SOCPS_AONWakeClear>:
   854d0:	497e      	ldr	r1, [pc, #504]	; (856cc <.image2.ram.text_29>)
   854d2:	6008      	str	r0, [r1, #0]
   854d4:	4770      	bx	lr

000854d6 <SOCPS_WakePinCheck>:
   854d6:	487e      	ldr	r0, [pc, #504]	; (856d0 <.image2.ram.text_30>)
   854d8:	6800      	ldr	r0, [r0, #0]
   854da:	0100      	lsls	r0, r0, #4
   854dc:	0f00      	lsrs	r0, r0, #28
   854de:	4770      	bx	lr

000854e0 <SOCPS_SetPeripheralClock>:
   854e0:	b410      	push	{r4}
   854e2:	2100      	movs	r1, #0
   854e4:	2400      	movs	r4, #0
   854e6:	43e4      	mvns	r4, r4
   854e8:	e000      	b.n	854ec <SOCPS_SetPeripheralClock+0xc>
   854ea:	1c49      	adds	r1, r1, #1
   854ec:	4a79      	ldr	r2, [pc, #484]	; (856d4 <.image2.ram.text_31>)
   854ee:	00cb      	lsls	r3, r1, #3
   854f0:	18d2      	adds	r2, r2, r3
   854f2:	6813      	ldr	r3, [r2, #0]
   854f4:	42a3      	cmp	r3, r4
   854f6:	d010      	beq.n	8551a <SOCPS_SetPeripheralClock+0x3a>
   854f8:	6853      	ldr	r3, [r2, #4]
   854fa:	2b01      	cmp	r3, #1
   854fc:	d1f5      	bne.n	854ea <SOCPS_SetPeripheralClock+0xa>
   854fe:	7812      	ldrb	r2, [r2, #0]
   85500:	06d2      	lsls	r2, r2, #27
   85502:	d5f2      	bpl.n	854ea <SOCPS_SetPeripheralClock+0xa>
   85504:	4974      	ldr	r1, [pc, #464]	; (856d8 <.image2.ram.text_32>)
   85506:	680a      	ldr	r2, [r1, #0]
   85508:	2801      	cmp	r0, #1
   8550a:	d103      	bne.n	85514 <SOCPS_SetPeripheralClock+0x34>
   8550c:	2080      	movs	r0, #128	; 0x80
   8550e:	0380      	lsls	r0, r0, #14
   85510:	4310      	orrs	r0, r2
   85512:	e001      	b.n	85518 <SOCPS_SetPeripheralClock+0x38>
   85514:	4871      	ldr	r0, [pc, #452]	; (856dc <.image2.ram.text_33>)
   85516:	4010      	ands	r0, r2
   85518:	6008      	str	r0, [r1, #0]
   8551a:	bc10      	pop	{r4}
   8551c:	4770      	bx	lr

0008551e <SOCPS_AONTimer>:
   8551e:	b190      	cbz	r0, 85546 <SOCPS_AONTimer+0x28>
   85520:	496f      	ldr	r1, [pc, #444]	; (856e0 <.image2.ram.text_34>)
   85522:	680a      	ldr	r2, [r1, #0]
   85524:	2304      	movs	r3, #4
   85526:	439a      	bics	r2, r3
   85528:	600a      	str	r2, [r1, #0]
   8552a:	0142      	lsls	r2, r0, #5
   8552c:	0843      	lsrs	r3, r0, #1
   8552e:	18d2      	adds	r2, r2, r3
   85530:	0883      	lsrs	r3, r0, #2
   85532:	18d2      	adds	r2, r2, r3
   85534:	0983      	lsrs	r3, r0, #6
   85536:	18d2      	adds	r2, r2, r3
   85538:	0a43      	lsrs	r3, r0, #9
   8553a:	18d2      	adds	r2, r2, r3
   8553c:	0ac0      	lsrs	r0, r0, #11
   8553e:	1810      	adds	r0, r2, r0
   85540:	0080      	lsls	r0, r0, #2
   85542:	0880      	lsrs	r0, r0, #2
   85544:	62c8      	str	r0, [r1, #44]	; 0x2c
   85546:	4770      	bx	lr

00085548 <SOCPS_AONTimerCmd>:
   85548:	496b      	ldr	r1, [pc, #428]	; (856f8 <.image2.ram.text_41>)
   8554a:	680a      	ldr	r2, [r1, #0]
   8554c:	b910      	cbnz	r0, 85554 <SOCPS_AONTimerCmd+0xc>
   8554e:	0050      	lsls	r0, r2, #1
   85550:	0840      	lsrs	r0, r0, #1
   85552:	e002      	b.n	8555a <SOCPS_AONTimerCmd+0x12>
   85554:	2080      	movs	r0, #128	; 0x80
   85556:	0600      	lsls	r0, r0, #24
   85558:	4310      	orrs	r0, r2
   8555a:	6008      	str	r0, [r1, #0]
   8555c:	2002      	movs	r0, #2
   8555e:	62c8      	str	r0, [r1, #44]	; 0x2c
   85560:	4770      	bx	lr

00085562 <SOCPS_SetWakepin>:
   85562:	b430      	push	{r4, r5}
   85564:	4b65      	ldr	r3, [pc, #404]	; (856fc <.image2.ram.text_44>)
   85566:	2401      	movs	r4, #1
   85568:	621c      	str	r4, [r3, #32]
   8556a:	681a      	ldr	r2, [r3, #0]
   8556c:	43a2      	bics	r2, r4
   8556e:	601a      	str	r2, [r3, #0]
   85570:	685d      	ldr	r5, [r3, #4]
   85572:	2201      	movs	r2, #1
   85574:	4082      	lsls	r2, r0
   85576:	4395      	bics	r5, r2
   85578:	2901      	cmp	r1, #1
   8557a:	d101      	bne.n	85580 <SOCPS_SetWakepin+0x1e>
   8557c:	432a      	orrs	r2, r5
   8557e:	0015      	movs	r5, r2
   85580:	605d      	str	r5, [r3, #4]
   85582:	6818      	ldr	r0, [r3, #0]
   85584:	4304      	orrs	r4, r0
   85586:	601c      	str	r4, [r3, #0]
   85588:	bc30      	pop	{r4, r5}
   8558a:	4770      	bx	lr

0008558c <SOCPS_SYSIrq>:
   8558c:	b510      	push	{r4, lr}
   8558e:	f000 f964 	bl	8585a <SOCPS_SleepDeInit>
   85592:	4c5b      	ldr	r4, [pc, #364]	; (85700 <.image2.ram.text_45>)
   85594:	485b      	ldr	r0, [pc, #364]	; (85704 <.image2.ram.text_46>)
   85596:	6800      	ldr	r0, [r0, #0]
   85598:	b148      	cbz	r0, 855ae <SOCPS_SYSIrq+0x22>
   8559a:	6820      	ldr	r0, [r4, #0]
   8559c:	b938      	cbnz	r0, 855ae <SOCPS_SYSIrq+0x22>
   8559e:	485a      	ldr	r0, [pc, #360]	; (85708 <.image2.ram.text_47>)
   855a0:	6800      	ldr	r0, [r0, #0]
   855a2:	0380      	lsls	r0, r0, #14
   855a4:	d503      	bpl.n	855ae <SOCPS_SYSIrq+0x22>
   855a6:	68a1      	ldr	r1, [r4, #8]
   855a8:	4877      	ldr	r0, [pc, #476]	; (85788 <.image2.ram.text_51>)
   855aa:	f77a ff63 	bl	474 <DiagVSprintf+0x35f>
   855ae:	2000      	movs	r0, #0
   855b0:	6020      	str	r0, [r4, #0]
   855b2:	bd10      	pop	{r4, pc}

000855b4 <SOCPS_MMUBackup>:
   855b4:	4855      	ldr	r0, [pc, #340]	; (8570c <.image2.ram.text_48>)
   855b6:	4975      	ldr	r1, [pc, #468]	; (8578c <.image2.ram.text_52>)
   855b8:	680a      	ldr	r2, [r1, #0]
   855ba:	6002      	str	r2, [r0, #0]
   855bc:	688a      	ldr	r2, [r1, #8]
   855be:	6082      	str	r2, [r0, #8]
   855c0:	68ca      	ldr	r2, [r1, #12]
   855c2:	60c2      	str	r2, [r0, #12]
   855c4:	684a      	ldr	r2, [r1, #4]
   855c6:	6042      	str	r2, [r0, #4]
   855c8:	690a      	ldr	r2, [r1, #16]
   855ca:	6102      	str	r2, [r0, #16]
   855cc:	698a      	ldr	r2, [r1, #24]
   855ce:	6182      	str	r2, [r0, #24]
   855d0:	69ca      	ldr	r2, [r1, #28]
   855d2:	61c2      	str	r2, [r0, #28]
   855d4:	6949      	ldr	r1, [r1, #20]
   855d6:	6141      	str	r1, [r0, #20]
   855d8:	4770      	bx	lr

000855da <SOCPS_MMUReFill>:
   855da:	484c      	ldr	r0, [pc, #304]	; (8570c <.image2.ram.text_48>)
   855dc:	496b      	ldr	r1, [pc, #428]	; (8578c <.image2.ram.text_52>)
   855de:	6802      	ldr	r2, [r0, #0]
   855e0:	600a      	str	r2, [r1, #0]
   855e2:	6882      	ldr	r2, [r0, #8]
   855e4:	608a      	str	r2, [r1, #8]
   855e6:	68c2      	ldr	r2, [r0, #12]
   855e8:	60ca      	str	r2, [r1, #12]
   855ea:	6842      	ldr	r2, [r0, #4]
   855ec:	604a      	str	r2, [r1, #4]
   855ee:	6902      	ldr	r2, [r0, #16]
   855f0:	610a      	str	r2, [r1, #16]
   855f2:	6982      	ldr	r2, [r0, #24]
   855f4:	618a      	str	r2, [r1, #24]
   855f6:	69c2      	ldr	r2, [r0, #28]
   855f8:	61ca      	str	r2, [r1, #28]
   855fa:	6940      	ldr	r0, [r0, #20]
   855fc:	6148      	str	r0, [r1, #20]
   855fe:	4770      	bx	lr

00085600 <SOCPS_WakeFromPG>:
   85600:	b510      	push	{r4, lr}
   85602:	f7ff ffea 	bl	855da <SOCPS_MMUReFill>
   85606:	2000      	movs	r0, #0
   85608:	f7ff ff34 	bl	85474 <?Veneer 3 (3) for km4_flash_highspeed_resume>
   8560c:	4860      	ldr	r0, [pc, #384]	; (85790 <.image2.ram.text_53>)
   8560e:	6880      	ldr	r0, [r0, #8]
   85610:	b138      	cbz	r0, 85622 <SOCPS_WakeFromPG+0x22>
   85612:	483d      	ldr	r0, [pc, #244]	; (85708 <.image2.ram.text_47>)
   85614:	6800      	ldr	r0, [r0, #0]
   85616:	0380      	lsls	r0, r0, #14
   85618:	d503      	bpl.n	85622 <SOCPS_WakeFromPG+0x22>
   8561a:	bf00      	nop
   8561c:	a031      	add	r0, pc, #196	; (adr r0, 856e4 <.image2.ram.text_38>)
   8561e:	f77a ff29 	bl	474 <DiagVSprintf+0x35f>
   85622:	485c      	ldr	r0, [pc, #368]	; (85794 <.image2.ram.text_54>)
   85624:	495c      	ldr	r1, [pc, #368]	; (85798 <.image2.ram.text_55>)
   85626:	6008      	str	r0, [r1, #0]
   85628:	495c      	ldr	r1, [pc, #368]	; (8579c <.image2.ram.text_56>)
   8562a:	000a      	movs	r2, r1
   8562c:	329c      	adds	r2, #156	; 0x9c
   8562e:	485c      	ldr	r0, [pc, #368]	; (857a0 <.image2.ram.text_57>)
   85630:	6ac3      	ldr	r3, [r0, #44]	; 0x2c
   85632:	6093      	str	r3, [r2, #8]
   85634:	4b5b      	ldr	r3, [pc, #364]	; (857a4 <.image2.ram.text_58>)
   85636:	62c3      	str	r3, [r0, #44]	; 0x2c
   85638:	6813      	ldr	r3, [r2, #0]
   8563a:	6c08      	ldr	r0, [r1, #64]	; 0x40
   8563c:	2480      	movs	r4, #128	; 0x80
   8563e:	0464      	lsls	r4, r4, #17
   85640:	4304      	orrs	r4, r0
   85642:	1f18      	subs	r0, r3, #4
   85644:	6004      	str	r4, [r0, #0]
   85646:	6bcc      	ldr	r4, [r1, #60]	; 0x3c
   85648:	0018      	movs	r0, r3
   8564a:	3808      	subs	r0, #8
   8564c:	6004      	str	r4, [r0, #0]
   8564e:	6b8c      	ldr	r4, [r1, #56]	; 0x38
   85650:	0018      	movs	r0, r3
   85652:	380c      	subs	r0, #12
   85654:	6004      	str	r4, [r0, #0]
   85656:	6b0c      	ldr	r4, [r1, #48]	; 0x30
   85658:	0018      	movs	r0, r3
   8565a:	3810      	subs	r0, #16
   8565c:	6004      	str	r4, [r0, #0]
   8565e:	68cc      	ldr	r4, [r1, #12]
   85660:	0018      	movs	r0, r3
   85662:	3814      	subs	r0, #20
   85664:	6004      	str	r4, [r0, #0]
   85666:	688c      	ldr	r4, [r1, #8]
   85668:	0018      	movs	r0, r3
   8566a:	3818      	subs	r0, #24
   8566c:	6004      	str	r4, [r0, #0]
   8566e:	684c      	ldr	r4, [r1, #4]
   85670:	0018      	movs	r0, r3
   85672:	381c      	subs	r0, #28
   85674:	6004      	str	r4, [r0, #0]
   85676:	680c      	ldr	r4, [r1, #0]
   85678:	0018      	movs	r0, r3
   8567a:	3820      	subs	r0, #32
   8567c:	6004      	str	r4, [r0, #0]
   8567e:	69cc      	ldr	r4, [r1, #28]
   85680:	0018      	movs	r0, r3
   85682:	3824      	subs	r0, #36	; 0x24
   85684:	6004      	str	r4, [r0, #0]
   85686:	698c      	ldr	r4, [r1, #24]
   85688:	0018      	movs	r0, r3
   8568a:	3828      	subs	r0, #40	; 0x28
   8568c:	6004      	str	r4, [r0, #0]
   8568e:	694c      	ldr	r4, [r1, #20]
   85690:	0018      	movs	r0, r3
   85692:	382c      	subs	r0, #44	; 0x2c
   85694:	6004      	str	r4, [r0, #0]
   85696:	690c      	ldr	r4, [r1, #16]
   85698:	0018      	movs	r0, r3
   8569a:	3830      	subs	r0, #48	; 0x30
   8569c:	6004      	str	r4, [r0, #0]
   8569e:	6acc      	ldr	r4, [r1, #44]	; 0x2c
   856a0:	0018      	movs	r0, r3
   856a2:	3834      	subs	r0, #52	; 0x34
   856a4:	6004      	str	r4, [r0, #0]
   856a6:	6a8c      	ldr	r4, [r1, #40]	; 0x28
   856a8:	0018      	movs	r0, r3
   856aa:	3838      	subs	r0, #56	; 0x38
   856ac:	6004      	str	r4, [r0, #0]
   856ae:	6a4c      	ldr	r4, [r1, #36]	; 0x24
   856b0:	0018      	movs	r0, r3
   856b2:	383c      	subs	r0, #60	; 0x3c
   856b4:	6004      	str	r4, [r0, #0]
   856b6:	3b40      	subs	r3, #64	; 0x40
   856b8:	6a08      	ldr	r0, [r1, #32]
   856ba:	6018      	str	r0, [r3, #0]
   856bc:	6013      	str	r3, [r2, #0]
   856be:	b662      	cpsie	i
   856c0:	df00      	svc	0
   856c2:	bf00      	nop
   856c4:	bd10      	pop	{r4, pc}
	...

000856c8 <.image2.ram.text_27>:
   856c8:	48000060 	.word	0x48000060

000856cc <.image2.ram.text_29>:
   856cc:	4800005c 	.word	0x4800005c

000856d0 <.image2.ram.text_30>:
   856d0:	48000040 	.word	0x48000040

000856d4 <.image2.ram.text_31>:
   856d4:	000861d8 	.word	0x000861d8

000856d8 <.image2.ram.text_32>:
   856d8:	48000214 	.word	0x48000214

000856dc <.image2.ram.text_33>:
   856dc:	ffdfffff 	.word	0xffdfffff

000856e0 <.image2.ram.text_34>:
   856e0:	48000004 	.word	0x48000004

000856e4 <.image2.ram.text_38>:
   856e4:	434f530d 	.word	0x434f530d
   856e8:	575f5350 	.word	0x575f5350
   856ec:	46656b61 	.word	0x46656b61
   856f0:	506d6f72 	.word	0x506d6f72
   856f4:	000a2047 	.word	0x000a2047

000856f8 <.image2.ram.text_41>:
   856f8:	48000030 	.word	0x48000030

000856fc <.image2.ram.text_44>:
   856fc:	4800003c 	.word	0x4800003c

00085700 <.image2.ram.text_45>:
   85700:	0008baf4 	.word	0x0008baf4

00085704 <.image2.ram.text_46>:
   85704:	0008b6e4 	.word	0x0008b6e4

00085708 <.image2.ram.text_47>:
   85708:	000801cc 	.word	0x000801cc

0008570c <.image2.ram.text_48>:
   8570c:	0008bad4 	.word	0x0008bad4

00085710 <SOCPS_KM4Wake>:
   85710:	b4f0      	push	{r4, r5, r6, r7}
   85712:	2300      	movs	r3, #0
   85714:	4859      	ldr	r0, [pc, #356]	; (8587c <.image2.ram.text_64>)
   85716:	68c4      	ldr	r4, [r0, #12]
   85718:	6905      	ldr	r5, [r0, #16]
   8571a:	f240 3104 	movw	r1, #772	; 0x304
   8571e:	e017      	b.n	85750 <SOCPS_KM4Wake+0x40>
   85720:	428e      	cmp	r6, r1
   85722:	d101      	bne.n	85728 <SOCPS_KM4Wake+0x18>
   85724:	6857      	ldr	r7, [r2, #4]
   85726:	43bc      	bics	r4, r7
   85728:	2e5c      	cmp	r6, #92	; 0x5c
   8572a:	d110      	bne.n	8574e <SOCPS_KM4Wake+0x3e>
   8572c:	6852      	ldr	r2, [r2, #4]
   8572e:	4395      	bics	r5, r2
   85730:	e00d      	b.n	8574e <SOCPS_KM4Wake+0x3e>
   85732:	6896      	ldr	r6, [r2, #8]
   85734:	2e01      	cmp	r6, #1
   85736:	6816      	ldr	r6, [r2, #0]
   85738:	d1f2      	bne.n	85720 <SOCPS_KM4Wake+0x10>
   8573a:	428e      	cmp	r6, r1
   8573c:	d102      	bne.n	85744 <SOCPS_KM4Wake+0x34>
   8573e:	0027      	movs	r7, r4
   85740:	6854      	ldr	r4, [r2, #4]
   85742:	433c      	orrs	r4, r7
   85744:	2e5c      	cmp	r6, #92	; 0x5c
   85746:	d102      	bne.n	8574e <SOCPS_KM4Wake+0x3e>
   85748:	002e      	movs	r6, r5
   8574a:	6855      	ldr	r5, [r2, #4]
   8574c:	4335      	orrs	r5, r6
   8574e:	1c5b      	adds	r3, r3, #1
   85750:	4a4b      	ldr	r2, [pc, #300]	; (85880 <.image2.ram.text_65>)
   85752:	260c      	movs	r6, #12
   85754:	435e      	muls	r6, r3
   85756:	1992      	adds	r2, r2, r6
   85758:	6816      	ldr	r6, [r2, #0]
   8575a:	2700      	movs	r7, #0
   8575c:	43ff      	mvns	r7, r7
   8575e:	42be      	cmp	r6, r7
   85760:	d1e7      	bne.n	85732 <SOCPS_KM4Wake+0x22>
   85762:	6105      	str	r5, [r0, #16]
   85764:	60c4      	str	r4, [r0, #12]
   85766:	4947      	ldr	r1, [pc, #284]	; (85884 <.image2.ram.text_66>)
   85768:	6809      	ldr	r1, [r1, #0]
   8576a:	6883      	ldr	r3, [r0, #8]
   8576c:	4023      	ands	r3, r4
   8576e:	4019      	ands	r1, r3
   85770:	6840      	ldr	r0, [r0, #4]
   85772:	4028      	ands	r0, r5
   85774:	4a44      	ldr	r2, [pc, #272]	; (85888 <.image2.ram.text_67>)
   85776:	6812      	ldr	r2, [r2, #0]
   85778:	4002      	ands	r2, r0
   8577a:	430a      	orrs	r2, r1
   8577c:	0010      	movs	r0, r2
   8577e:	d000      	beq.n	85782 <SOCPS_KM4Wake+0x72>
   85780:	2001      	movs	r0, #1
   85782:	bcf0      	pop	{r4, r5, r6, r7}
   85784:	4770      	bx	lr
	...

00085788 <.image2.ram.text_51>:
   85788:	0c010a54 	.word	0x0c010a54

0008578c <.image2.ram.text_52>:
   8578c:	48000630 	.word	0x48000630

00085790 <.image2.ram.text_53>:
   85790:	00086558 	.word	0x00086558

00085794 <.image2.ram.text_54>:
   85794:	f0f00000 	.word	0xf0f00000

00085798 <.image2.ram.text_55>:
   85798:	e000ed20 	.word	0xe000ed20

0008579c <.image2.ram.text_56>:
   8579c:	0008b9e0 	.word	0x0008b9e0

000857a0 <.image2.ram.text_57>:
   857a0:	00080000 	.word	0x00080000

000857a4 <.image2.ram.text_58>:
   857a4:	0c001791 	.word	0x0c001791

000857a8 <SOCPS_SleepCG>:
   857a8:	b5f8      	push	{r3, r4, r5, r6, r7, lr}
   857aa:	2480      	movs	r4, #128	; 0x80
   857ac:	02a4      	lsls	r4, r4, #10
   857ae:	4d37      	ldr	r5, [pc, #220]	; (8588c <.image2.ram.text_68>)
   857b0:	68a8      	ldr	r0, [r5, #8]
   857b2:	b130      	cbz	r0, 857c2 <SOCPS_SleepCG+0x1a>
   857b4:	4836      	ldr	r0, [pc, #216]	; (85890 <.image2.ram.text_69>)
   857b6:	6800      	ldr	r0, [r0, #0]
   857b8:	4020      	ands	r0, r4
   857ba:	d002      	beq.n	857c2 <SOCPS_SleepCG+0x1a>
   857bc:	a039      	add	r0, pc, #228	; (adr r0, 858a4 <.image2.ram.text_75>)
   857be:	f77a fe59 	bl	474 <DiagVSprintf+0x35f>
   857c2:	2000      	movs	r0, #0
   857c4:	4933      	ldr	r1, [pc, #204]	; (85894 <.image2.ram.text_70>)
   857c6:	6008      	str	r0, [r1, #0]
   857c8:	f7ff fe5c 	bl	85484 <?Veneer 4 (3) for pmu_exec_sleep_hook_funs>
   857cc:	0006      	movs	r6, r0
   857ce:	2e1f      	cmp	r6, #31
   857d0:	d00c      	beq.n	857ec <SOCPS_SleepCG+0x44>
   857d2:	f7ff fe5f 	bl	85494 <?Veneer 5 (3) for pmu_exec_wakeup_hook_funs>
   857d6:	482e      	ldr	r0, [pc, #184]	; (85890 <.image2.ram.text_69>)
   857d8:	6800      	ldr	r0, [r0, #0]
   857da:	4004      	ands	r4, r0
   857dc:	d003      	beq.n	857e6 <SOCPS_SleepCG+0x3e>
   857de:	0031      	movs	r1, r6
   857e0:	a033      	add	r0, pc, #204	; (adr r0, 858b0 <.image2.ram.text_76>)
   857e2:	f77a fe47 	bl	474 <DiagVSprintf+0x35f>
   857e6:	f000 f838 	bl	8585a <SOCPS_SleepDeInit>
   857ea:	bdf1      	pop	{r0, r4, r5, r6, r7, pc}
   857ec:	482a      	ldr	r0, [pc, #168]	; (85898 <.image2.ram.text_71>)
   857ee:	f77e f8cd 	bl	398c <RTIM_Cmd+0xb1>
   857f2:	f240 112c 	movw	r1, #300	; 0x12c
   857f6:	1840      	adds	r0, r0, r1
   857f8:	62a8      	str	r0, [r5, #40]	; 0x28
   857fa:	4f20      	ldr	r7, [pc, #128]	; (8587c <.image2.ram.text_64>)
   857fc:	2001      	movs	r0, #1
   857fe:	6038      	str	r0, [r7, #0]
   85800:	4e26      	ldr	r6, [pc, #152]	; (8589c <.image2.ram.text_72>)
   85802:	6830      	ldr	r0, [r6, #0]
   85804:	2180      	movs	r1, #128	; 0x80
   85806:	4388      	bics	r0, r1
   85808:	6030      	str	r0, [r6, #0]
   8580a:	2001      	movs	r0, #1
   8580c:	f7ff fe68 	bl	854e0 <SOCPS_SetPeripheralClock>
   85810:	f000 f91b 	bl	85a4a <SOCPS_SleepCG_RAM>
   85814:	6830      	ldr	r0, [r6, #0]
   85816:	2180      	movs	r1, #128	; 0x80
   85818:	4301      	orrs	r1, r0
   8581a:	6031      	str	r1, [r6, #0]
   8581c:	2000      	movs	r0, #0
   8581e:	f7ff fe5f 	bl	854e0 <SOCPS_SetPeripheralClock>
   85822:	481c      	ldr	r0, [pc, #112]	; (85894 <.image2.ram.text_70>)
   85824:	6900      	ldr	r0, [r0, #16]
   85826:	60b8      	str	r0, [r7, #8]
   85828:	6db0      	ldr	r0, [r6, #88]	; 0x58
   8582a:	6078      	str	r0, [r7, #4]
   8582c:	201f      	movs	r0, #31
   8582e:	f7ff fe31 	bl	85494 <?Veneer 5 (3) for pmu_exec_wakeup_hook_funs>
   85832:	68a8      	ldr	r0, [r5, #8]
   85834:	b148      	cbz	r0, 8584a <SOCPS_SleepCG+0xa2>
   85836:	4816      	ldr	r0, [pc, #88]	; (85890 <.image2.ram.text_69>)
   85838:	6800      	ldr	r0, [r0, #0]
   8583a:	4004      	ands	r4, r0
   8583c:	d005      	beq.n	8584a <SOCPS_SleepCG+0xa2>
   8583e:	68ba      	ldr	r2, [r7, #8]
   85840:	6879      	ldr	r1, [r7, #4]
   85842:	bf00      	nop
   85844:	a021      	add	r0, pc, #132	; (adr r0, 858cc <.image2.ram.text_77>)
   85846:	f77a fe15 	bl	474 <DiagVSprintf+0x35f>
   8584a:	f7ff ff61 	bl	85710 <SOCPS_KM4Wake>
   8584e:	2801      	cmp	r0, #1
   85850:	d102      	bne.n	85858 <SOCPS_SleepCG+0xb0>
   85852:	2080      	movs	r0, #128	; 0x80
   85854:	f7ff fe26 	bl	854a4 <?Veneer 6 (3) for km4_set_wake_event>
   85858:	bdf1      	pop	{r0, r4, r5, r6, r7, pc}

0008585a <SOCPS_SleepDeInit>:
   8585a:	b580      	push	{r7, lr}
   8585c:	2000      	movs	r0, #0
   8585e:	f7ff fe73 	bl	85548 <SOCPS_AONTimerCmd>
   85862:	2100      	movs	r1, #0
   85864:	2000      	movs	r0, #0
   85866:	43c0      	mvns	r0, r0
   85868:	f000 f868 	bl	8593c <SOCPS_SetWakeEvent>
   8586c:	f000 f880 	bl	85970 <SOCPS_ClearWakePin>
   85870:	f000 f887 	bl	85982 <SOCPS_ClearWakeEvent>
   85874:	2001      	movs	r0, #1
   85876:	490a      	ldr	r1, [pc, #40]	; (858a0 <.image2.ram.text_73>)
   85878:	6008      	str	r0, [r1, #0]
   8587a:	bd01      	pop	{r0, pc}

0008587c <.image2.ram.text_64>:
   8587c:	0008baf4 	.word	0x0008baf4

00085880 <.image2.ram.text_65>:
   85880:	00086280 	.word	0x00086280

00085884 <.image2.ram.text_66>:
   85884:	48000300 	.word	0x48000300

00085888 <.image2.ram.text_67>:
   85888:	48000058 	.word	0x48000058

0008588c <.image2.ram.text_68>:
   8588c:	00086558 	.word	0x00086558

00085890 <.image2.ram.text_69>:
   85890:	000801cc 	.word	0x000801cc

00085894 <.image2.ram.text_70>:
   85894:	480002f4 	.word	0x480002f4

00085898 <.image2.ram.text_71>:
   85898:	48002280 	.word	0x48002280

0008589c <.image2.ram.text_72>:
   8589c:	48000004 	.word	0x48000004

000858a0 <.image2.ram.text_73>:
   858a0:	e000e280 	.word	0xe000e280

000858a4 <.image2.ram.text_75>:
   858a4:	304d4b0d 	.word	0x304d4b0d
   858a8:	0a204743 	.word	0x0a204743
   858ac:	00000000 	.word	0x00000000

000858b0 <.image2.ram.text_76>:
   858b0:	706f4f0d 	.word	0x706f4f0d
   858b4:	53203a73 	.word	0x53203a73
   858b8:	7065656c 	.word	0x7065656c
   858bc:	69614620 	.word	0x69614620
   858c0:	7825206c 	.word	0x7825206c
   858c4:	21212120 	.word	0x21212120
   858c8:	000a2121 	.word	0x000a2121

000858cc <.image2.ram.text_77>:
   858cc:	304d4b0d 	.word	0x304d4b0d
   858d0:	202d4743 	.word	0x202d4743
   858d4:	25207825 	.word	0x25207825
   858d8:	0a78      	.short	0x0a78
	...

000858dc <?Veneer 7 (3) for pinmap_sleep>:
   858dc:	b408      	push	{r3}
   858de:	4b02      	ldr	r3, [pc, #8]	; (858e8 <?Veneer 7 (3) for pinmap_sleep+0xc>)
   858e0:	469c      	mov	ip, r3
   858e2:	bc08      	pop	{r3}
   858e4:	4760      	bx	ip
   858e6:	46c0      	nop			; (mov r8, r8)
   858e8:	0c00225f 	.word	0x0c00225f

000858ec <?Veneer 8 (3) for km4_flash_highspeed_suspend>:
   858ec:	b408      	push	{r3}
   858ee:	4b02      	ldr	r3, [pc, #8]	; (858f8 <?Veneer 8 (3) for km4_flash_highspeed_suspend+0xc>)
   858f0:	469c      	mov	ip, r3
   858f2:	bc08      	pop	{r3}
   858f4:	4760      	bx	ip
   858f6:	46c0      	nop			; (mov r8, r8)
   858f8:	0c001f67 	.word	0x0c001f67

000858fc <?Veneer 9 (3) for SOCPS_OSC2M_Cmd>:
   858fc:	b408      	push	{r3}
   858fe:	4b02      	ldr	r3, [pc, #8]	; (85908 <?Veneer 9 (3) for SOCPS_OSC2M_Cmd+0xc>)
   85900:	469c      	mov	ip, r3
   85902:	bc08      	pop	{r3}
   85904:	4760      	bx	ip
   85906:	46c0      	nop			; (mov r8, r8)
   85908:	0c0021cd 	.word	0x0c0021cd

0008590c <?Veneer 10 (3) for pinmap_wake>:
   8590c:	b408      	push	{r3}
   8590e:	4b02      	ldr	r3, [pc, #8]	; (85918 <?Veneer 10 (3) for pinmap_wake+0xc>)
   85910:	469c      	mov	ip, r3
   85912:	bc08      	pop	{r3}
   85914:	4760      	bx	ip
   85916:	46c0      	nop			; (mov r8, r8)
   85918:	0c0022d9 	.word	0x0c0022d9

0008591c <?Veneer 11 (3) for SOCPS_DsleepInit>:
   8591c:	b408      	push	{r3}
   8591e:	4b02      	ldr	r3, [pc, #8]	; (85928 <?Veneer 11 (3) for SOCPS_DsleepInit+0xc>)
   85920:	469c      	mov	ip, r3
   85922:	bc08      	pop	{r3}
   85924:	4760      	bx	ip
   85926:	46c0      	nop			; (mov r8, r8)
   85928:	0c001c6d 	.word	0x0c001c6d

0008592c <?Veneer 12 (3) for pinmap_deepsleep>:
   8592c:	b408      	push	{r3}
   8592e:	4b02      	ldr	r3, [pc, #8]	; (85938 <?Veneer 12 (3) for pinmap_deepsleep+0xc>)
   85930:	469c      	mov	ip, r3
   85932:	bc08      	pop	{r3}
   85934:	4760      	bx	ip
   85936:	46c0      	nop			; (mov r8, r8)
   85938:	0c002297 	.word	0x0c002297

0008593c <SOCPS_SetWakeEvent>:
   8593c:	b410      	push	{r4}
   8593e:	4aaf      	ldr	r2, [pc, #700]	; (85bfc <.image2.ram.text_11>)
   85940:	6993      	ldr	r3, [r2, #24]
   85942:	2410      	movs	r4, #16
   85944:	431c      	orrs	r4, r3
   85946:	6194      	str	r4, [r2, #24]
   85948:	6813      	ldr	r3, [r2, #0]
   8594a:	2901      	cmp	r1, #1
   8594c:	d101      	bne.n	85952 <SOCPS_SetWakeEvent+0x16>
   8594e:	4318      	orrs	r0, r3
   85950:	e001      	b.n	85956 <SOCPS_SetWakeEvent+0x1a>
   85952:	4383      	bics	r3, r0
   85954:	0018      	movs	r0, r3
   85956:	6010      	str	r0, [r2, #0]
   85958:	bc10      	pop	{r4}
   8595a:	4770      	bx	lr

0008595c <SOCPS_SetWakeEventAON>:
   8595c:	4ac5      	ldr	r2, [pc, #788]	; (85c74 <.image2.ram.text_20>)
   8595e:	6813      	ldr	r3, [r2, #0]
   85960:	2901      	cmp	r1, #1
   85962:	d101      	bne.n	85968 <SOCPS_SetWakeEventAON+0xc>
   85964:	4318      	orrs	r0, r3
   85966:	e001      	b.n	8596c <SOCPS_SetWakeEventAON+0x10>
   85968:	4383      	bics	r3, r0
   8596a:	0018      	movs	r0, r3
   8596c:	6010      	str	r0, [r2, #0]
   8596e:	4770      	bx	lr

00085970 <SOCPS_ClearWakePin>:
   85970:	48a3      	ldr	r0, [pc, #652]	; (85c00 <.image2.ram.text_12>)
   85972:	6801      	ldr	r1, [r0, #0]
   85974:	4ac0      	ldr	r2, [pc, #768]	; (85c78 <.image2.ram.text_21>)
   85976:	400a      	ands	r2, r1
   85978:	21f0      	movs	r1, #240	; 0xf0
   8597a:	0509      	lsls	r1, r1, #20
   8597c:	4311      	orrs	r1, r2
   8597e:	6001      	str	r1, [r0, #0]
   85980:	4770      	bx	lr

00085982 <SOCPS_ClearWakeEvent>:
   85982:	48be      	ldr	r0, [pc, #760]	; (85c7c <.image2.ram.text_22>)
   85984:	6801      	ldr	r1, [r0, #0]
   85986:	6001      	str	r1, [r0, #0]
   85988:	6881      	ldr	r1, [r0, #8]
   8598a:	6081      	str	r1, [r0, #8]
   8598c:	20ef      	movs	r0, #239	; 0xef
   8598e:	f7ff bd9f 	b.w	854d0 <SOCPS_AONWakeClear>

00085992 <SOCPS_AudioLDO>:
   85992:	b570      	push	{r4, r5, r6, lr}
   85994:	499b      	ldr	r1, [pc, #620]	; (85c04 <.image2.ram.text_13>)
   85996:	4c9c      	ldr	r4, [pc, #624]	; (85c08 <.image2.ram.text_14>)
   85998:	4d9c      	ldr	r5, [pc, #624]	; (85c0c <.image2.ram.text_15>)
   8599a:	b958      	cbnz	r0, 859b4 <SOCPS_AudioLDO+0x22>
   8599c:	6828      	ldr	r0, [r5, #0]
   8599e:	4a9c      	ldr	r2, [pc, #624]	; (85c10 <.image2.ram.text_16>)
   859a0:	4002      	ands	r2, r0
   859a2:	602a      	str	r2, [r5, #0]
   859a4:	0610      	lsls	r0, r2, #24
   859a6:	0e40      	lsrs	r0, r0, #25
   859a8:	6020      	str	r0, [r4, #0]
   859aa:	6808      	ldr	r0, [r1, #0]
   859ac:	2207      	movs	r2, #7
   859ae:	4390      	bics	r0, r2
   859b0:	6008      	str	r0, [r1, #0]
   859b2:	bd70      	pop	{r4, r5, r6, pc}
   859b4:	4897      	ldr	r0, [pc, #604]	; (85c14 <.image2.ram.text_17>)
   859b6:	6840      	ldr	r0, [r0, #4]
   859b8:	b9d8      	cbnz	r0, 859f2 <SOCPS_AudioLDO+0x60>
   859ba:	48b1      	ldr	r0, [pc, #708]	; (85c80 <.image2.ram.text_23>)
   859bc:	6980      	ldr	r0, [r0, #24]
   859be:	b1c0      	cbz	r0, 859f2 <SOCPS_AudioLDO+0x60>
   859c0:	6828      	ldr	r0, [r5, #0]
   859c2:	2601      	movs	r6, #1
   859c4:	4030      	ands	r0, r6
   859c6:	d114      	bne.n	859f2 <SOCPS_AudioLDO+0x60>
   859c8:	6808      	ldr	r0, [r1, #0]
   859ca:	2207      	movs	r2, #7
   859cc:	4302      	orrs	r2, r0
   859ce:	600a      	str	r2, [r1, #0]
   859d0:	6828      	ldr	r0, [r5, #0]
   859d2:	0231      	lsls	r1, r6, #8
   859d4:	4301      	orrs	r1, r0
   859d6:	6029      	str	r1, [r5, #0]
   859d8:	2005      	movs	r0, #5
   859da:	f77b fd72 	bl	14c2 <DelayNop+0xd>
   859de:	6828      	ldr	r0, [r5, #0]
   859e0:	21fe      	movs	r1, #254	; 0xfe
   859e2:	4388      	bics	r0, r1
   859e4:	6821      	ldr	r1, [r4, #0]
   859e6:	0049      	lsls	r1, r1, #1
   859e8:	4301      	orrs	r1, r0
   859ea:	6029      	str	r1, [r5, #0]
   859ec:	6828      	ldr	r0, [r5, #0]
   859ee:	4306      	orrs	r6, r0
   859f0:	602e      	str	r6, [r5, #0]
   859f2:	bd70      	pop	{r4, r5, r6, pc}

000859f4 <SOCPS_SWRLDO_Suspend>:
   859f4:	b410      	push	{r4}
   859f6:	49a3      	ldr	r1, [pc, #652]	; (85c84 <.image2.ram.text_24>)
   859f8:	4aa3      	ldr	r2, [pc, #652]	; (85c88 <.image2.ram.text_25>)
   859fa:	4ba4      	ldr	r3, [pc, #656]	; (85c8c <.image2.ram.text_26>)
   859fc:	2801      	cmp	r0, #1
   859fe:	6858      	ldr	r0, [r3, #4]
   85a00:	d113      	bne.n	85a2a <SOCPS_SWRLDO_Suspend+0x36>
   85a02:	4ca3      	ldr	r4, [pc, #652]	; (85c90 <.image2.ram.text_27>)
   85a04:	4004      	ands	r4, r0
   85a06:	f640 6000 	movw	r0, #3584	; 0xe00
   85a0a:	4320      	orrs	r0, r4
   85a0c:	6058      	str	r0, [r3, #4]
   85a0e:	6818      	ldr	r0, [r3, #0]
   85a10:	4ca0      	ldr	r4, [pc, #640]	; (85c94 <.image2.ram.text_28>)
   85a12:	4004      	ands	r4, r0
   85a14:	20c8      	movs	r0, #200	; 0xc8
   85a16:	0240      	lsls	r0, r0, #9
   85a18:	4320      	orrs	r0, r4
   85a1a:	6018      	str	r0, [r3, #0]
   85a1c:	6810      	ldr	r0, [r2, #0]
   85a1e:	4001      	ands	r1, r0
   85a20:	f244 0000 	movw	r0, #16384	; 0x4000
   85a24:	4308      	orrs	r0, r1
   85a26:	0001      	movs	r1, r0
   85a28:	e00c      	b.n	85a44 <SOCPS_SWRLDO_Suspend+0x50>
   85a2a:	4c9b      	ldr	r4, [pc, #620]	; (85c98 <.image2.ram.text_29>)
   85a2c:	4004      	ands	r4, r0
   85a2e:	0c50      	lsrs	r0, r2, #17
   85a30:	4320      	orrs	r0, r4
   85a32:	6058      	str	r0, [r3, #4]
   85a34:	6818      	ldr	r0, [r3, #0]
   85a36:	4c99      	ldr	r4, [pc, #612]	; (85c9c <.image2.ram.text_30>)
   85a38:	4004      	ands	r4, r0
   85a3a:	0bd0      	lsrs	r0, r2, #15
   85a3c:	4320      	orrs	r0, r4
   85a3e:	6018      	str	r0, [r3, #0]
   85a40:	6810      	ldr	r0, [r2, #0]
   85a42:	4001      	ands	r1, r0
   85a44:	6011      	str	r1, [r2, #0]
   85a46:	bc10      	pop	{r4}
   85a48:	4770      	bx	lr

00085a4a <SOCPS_SleepCG_RAM>:
   85a4a:	b5f8      	push	{r3, r4, r5, r6, r7, lr}
   85a4c:	f7ff ff46 	bl	858dc <?Veneer 7 (3) for pinmap_sleep>
   85a50:	2000      	movs	r0, #0
   85a52:	f7ff ff4b 	bl	858ec <?Veneer 8 (3) for km4_flash_highspeed_suspend>
   85a56:	4c8a      	ldr	r4, [pc, #552]	; (85c80 <.image2.ram.text_23>)
   85a58:	68e0      	ldr	r0, [r4, #12]
   85a5a:	b110      	cbz	r0, 85a62 <SOCPS_SleepCG_RAM+0x18>
   85a5c:	2000      	movs	r0, #0
   85a5e:	f7ff ff4d 	bl	858fc <?Veneer 9 (3) for SOCPS_OSC2M_Cmd>
   85a62:	2001      	movs	r0, #1
   85a64:	f77c fba8 	bl	21b8 <FLASH_Erase+0x71>
   85a68:	2000      	movs	r0, #0
   85a6a:	f7ff ff92 	bl	85992 <SOCPS_AudioLDO>
   85a6e:	4d83      	ldr	r5, [pc, #524]	; (85c7c <.image2.ram.text_22>)
   85a70:	69e8      	ldr	r0, [r5, #28]
   85a72:	2101      	movs	r1, #1
   85a74:	4301      	orrs	r1, r0
   85a76:	61e9      	str	r1, [r5, #28]
   85a78:	4e89      	ldr	r6, [pc, #548]	; (85ca0 <.image2.ram.text_31>)
   85a7a:	488a      	ldr	r0, [pc, #552]	; (85ca4 <.image2.ram.text_32>)
   85a7c:	7800      	ldrb	r0, [r0, #0]
   85a7e:	b938      	cbnz	r0, 85a90 <SOCPS_SleepCG_RAM+0x46>
   85a80:	6830      	ldr	r0, [r6, #0]
   85a82:	2180      	movs	r1, #128	; 0x80
   85a84:	02c9      	lsls	r1, r1, #11
   85a86:	4301      	orrs	r1, r0
   85a88:	6031      	str	r1, [r6, #0]
   85a8a:	200c      	movs	r0, #12
   85a8c:	4381      	bics	r1, r0
   85a8e:	6031      	str	r1, [r6, #0]
   85a90:	6968      	ldr	r0, [r5, #20]
   85a92:	2702      	movs	r7, #2
   85a94:	2101      	movs	r1, #1
   85a96:	4388      	bics	r0, r1
   85a98:	4338      	orrs	r0, r7
   85a9a:	6168      	str	r0, [r5, #20]
   85a9c:	2032      	movs	r0, #50	; 0x32
   85a9e:	f77b fd10 	bl	14c2 <DelayNop+0xd>
   85aa2:	6930      	ldr	r0, [r6, #16]
   85aa4:	4307      	orrs	r7, r0
   85aa6:	6137      	str	r7, [r6, #16]
   85aa8:	6828      	ldr	r0, [r5, #0]
   85aaa:	0680      	lsls	r0, r0, #26
   85aac:	d504      	bpl.n	85ab8 <SOCPS_SleepCG_RAM+0x6e>
   85aae:	6928      	ldr	r0, [r5, #16]
   85ab0:	2180      	movs	r1, #128	; 0x80
   85ab2:	0249      	lsls	r1, r1, #9
   85ab4:	4301      	orrs	r1, r0
   85ab6:	6129      	str	r1, [r5, #16]
   85ab8:	487b      	ldr	r0, [pc, #492]	; (85ca8 <.image2.ram.text_33>)
   85aba:	2100      	movs	r1, #0
   85abc:	6141      	str	r1, [r0, #20]
   85abe:	f77d ff65 	bl	398c <RTIM_Cmd+0xb1>
   85ac2:	6320      	str	r0, [r4, #48]	; 0x30
   85ac4:	6830      	ldr	r0, [r6, #0]
   85ac6:	2104      	movs	r1, #4
   85ac8:	4301      	orrs	r1, r0
   85aca:	6031      	str	r1, [r6, #0]
   85acc:	2000      	movs	r0, #0
   85ace:	f77c fb73 	bl	21b8 <FLASH_Erase+0x71>
   85ad2:	4874      	ldr	r0, [pc, #464]	; (85ca4 <.image2.ram.text_32>)
   85ad4:	7800      	ldrb	r0, [r0, #0]
   85ad6:	b928      	cbnz	r0, 85ae4 <SOCPS_SleepCG_RAM+0x9a>
   85ad8:	6830      	ldr	r0, [r6, #0]
   85ada:	4974      	ldr	r1, [pc, #464]	; (85cac <.image2.ram.text_34>)
   85adc:	4001      	ands	r1, r0
   85ade:	2008      	movs	r0, #8
   85ae0:	4308      	orrs	r0, r1
   85ae2:	6030      	str	r0, [r6, #0]
   85ae4:	68e0      	ldr	r0, [r4, #12]
   85ae6:	b110      	cbz	r0, 85aee <SOCPS_SleepCG_RAM+0xa4>
   85ae8:	2001      	movs	r0, #1
   85aea:	f7ff ff07 	bl	858fc <?Veneer 9 (3) for SOCPS_OSC2M_Cmd>
   85aee:	2000      	movs	r0, #0
   85af0:	f7ff fcc0 	bl	85474 <?Veneer 3 (3) for km4_flash_highspeed_resume>
   85af4:	f7ff ff0a 	bl	8590c <?Veneer 10 (3) for pinmap_wake>
   85af8:	bdf1      	pop	{r0, r4, r5, r6, r7, pc}
	...

00085afc <SOCPS_SleepPG_RAM>:
   85afc:	b5f8      	push	{r3, r4, r5, r6, r7, lr}
   85afe:	f7ff feed 	bl	858dc <?Veneer 7 (3) for pinmap_sleep>
   85b02:	2000      	movs	r0, #0
   85b04:	f7ff fef2 	bl	858ec <?Veneer 8 (3) for km4_flash_highspeed_suspend>
   85b08:	485d      	ldr	r0, [pc, #372]	; (85c80 <.image2.ram.text_23>)
   85b0a:	68c0      	ldr	r0, [r0, #12]
   85b0c:	b110      	cbz	r0, 85b14 <SOCPS_SleepPG_RAM+0x18>
   85b0e:	2000      	movs	r0, #0
   85b10:	f7ff fef4 	bl	858fc <?Veneer 9 (3) for SOCPS_OSC2M_Cmd>
   85b14:	2001      	movs	r0, #1
   85b16:	f77c fb4f 	bl	21b8 <FLASH_Erase+0x71>
   85b1a:	2000      	movs	r0, #0
   85b1c:	f7ff ff39 	bl	85992 <SOCPS_AudioLDO>
   85b20:	4e63      	ldr	r6, [pc, #396]	; (85cb0 <.image2.ram.text_35>)
   85b22:	68b0      	ldr	r0, [r6, #8]
   85b24:	2501      	movs	r5, #1
   85b26:	43ed      	mvns	r5, r5
   85b28:	4028      	ands	r0, r5
   85b2a:	60b0      	str	r0, [r6, #8]
   85b2c:	f240 3700 	movw	r7, #768	; 0x300
   85b30:	2200      	movs	r2, #0
   85b32:	0039      	movs	r1, r7
   85b34:	485f      	ldr	r0, [pc, #380]	; (85cb4 <.image2.ram.text_36>)
   85b36:	f77f f9e7 	bl	4f08 <FLASH_Calibration+0x137>
   85b3a:	4c59      	ldr	r4, [pc, #356]	; (85ca0 <.image2.ram.text_31>)
   85b3c:	6820      	ldr	r0, [r4, #0]
   85b3e:	2180      	movs	r1, #128	; 0x80
   85b40:	02c9      	lsls	r1, r1, #11
   85b42:	4301      	orrs	r1, r0
   85b44:	6021      	str	r1, [r4, #0]
   85b46:	200c      	movs	r0, #12
   85b48:	4381      	bics	r1, r0
   85b4a:	6021      	str	r1, [r4, #0]
   85b4c:	6830      	ldr	r0, [r6, #0]
   85b4e:	2102      	movs	r1, #2
   85b50:	4005      	ands	r5, r0
   85b52:	430d      	orrs	r5, r1
   85b54:	6035      	str	r5, [r6, #0]
   85b56:	bf30      	wfi
   85b58:	bf00      	nop
   85b5a:	6920      	ldr	r0, [r4, #16]
   85b5c:	4301      	orrs	r1, r0
   85b5e:	6121      	str	r1, [r4, #16]
   85b60:	6820      	ldr	r0, [r4, #0]
   85b62:	2104      	movs	r1, #4
   85b64:	4301      	orrs	r1, r0
   85b66:	6021      	str	r1, [r4, #0]
   85b68:	2201      	movs	r2, #1
   85b6a:	0039      	movs	r1, r7
   85b6c:	4851      	ldr	r0, [pc, #324]	; (85cb4 <.image2.ram.text_36>)
   85b6e:	f77f f9cb 	bl	4f08 <FLASH_Calibration+0x137>
   85b72:	f7ff faf9 	bl	85168 <FLASH_Invalidate_Auto_Write>
   85b76:	4850      	ldr	r0, [pc, #320]	; (85cb8 <.image2.ram.text_37>)
   85b78:	7900      	ldrb	r0, [r0, #4]
   85b7a:	f77c fcb1 	bl	24e0 <FLASH_StructInit+0x8f>
   85b7e:	f000 f84b 	bl	85c18 <.image2.ram.text_18>
   85b82:	484e      	ldr	r0, [pc, #312]	; (85cbc <.image2.ram.text_38>)
   85b84:	2200      	movs	r2, #0
   85b86:	6002      	str	r2, [r0, #0]
   85b88:	f000 f846 	bl	85c18 <.image2.ram.text_18>
   85b8c:	494c      	ldr	r1, [pc, #304]	; (85cc0 <.image2.ram.text_39>)
   85b8e:	680b      	ldr	r3, [r1, #0]
   85b90:	2580      	movs	r5, #128	; 0x80
   85b92:	02ad      	lsls	r5, r5, #10
   85b94:	431d      	orrs	r5, r3
   85b96:	600d      	str	r5, [r1, #0]
   85b98:	f000 f83e 	bl	85c18 <.image2.ram.text_18>
   85b9c:	670a      	str	r2, [r1, #112]	; 0x70
   85b9e:	f3bf 8f4f 	dsb	sy
   85ba2:	6eca      	ldr	r2, [r1, #108]	; 0x6c
   85ba4:	0113      	lsls	r3, r2, #4
   85ba6:	0c5b      	lsrs	r3, r3, #17
   85ba8:	04d5      	lsls	r5, r2, #19
   85baa:	0dad      	lsrs	r5, r5, #22
   85bac:	015f      	lsls	r7, r3, #5
   85bae:	f643 76e0 	movw	r6, #16352	; 0x3fe0
   85bb2:	403e      	ands	r6, r7
   85bb4:	07ef      	lsls	r7, r5, #31
   85bb6:	4337      	orrs	r7, r6
   85bb8:	6107      	str	r7, [r0, #16]
   85bba:	002e      	movs	r6, r5
   85bbc:	1e75      	subs	r5, r6, #1
   85bbe:	2e00      	cmp	r6, #0
   85bc0:	d1f4      	bne.n	85bac <SOCPS_SleepPG_RAM+0xb0>
   85bc2:	001d      	movs	r5, r3
   85bc4:	1e6b      	subs	r3, r5, #1
   85bc6:	2d00      	cmp	r5, #0
   85bc8:	d1ee      	bne.n	85ba8 <SOCPS_SleepPG_RAM+0xac>
   85bca:	f3bf 8f4f 	dsb	sy
   85bce:	6808      	ldr	r0, [r1, #0]
   85bd0:	2280      	movs	r2, #128	; 0x80
   85bd2:	0252      	lsls	r2, r2, #9
   85bd4:	4302      	orrs	r2, r0
   85bd6:	600a      	str	r2, [r1, #0]
   85bd8:	f000 f81e 	bl	85c18 <.image2.ram.text_18>
   85bdc:	2000      	movs	r0, #0
   85bde:	f77c faeb 	bl	21b8 <FLASH_Erase+0x71>
   85be2:	6820      	ldr	r0, [r4, #0]
   85be4:	4931      	ldr	r1, [pc, #196]	; (85cac <.image2.ram.text_34>)
   85be6:	4001      	ands	r1, r0
   85be8:	2008      	movs	r0, #8
   85bea:	4308      	orrs	r0, r1
   85bec:	6020      	str	r0, [r4, #0]
   85bee:	f7ff fcf4 	bl	855da <SOCPS_MMUReFill>
   85bf2:	2000      	movs	r0, #0
   85bf4:	f7ff fc3e 	bl	85474 <?Veneer 3 (3) for km4_flash_highspeed_resume>
   85bf8:	bdf1      	pop	{r0, r4, r5, r6, r7, pc}
	...

00085bfc <.image2.ram.text_11>:
   85bfc:	48000300 	.word	0x48000300

00085c00 <.image2.ram.text_12>:
   85c00:	48000040 	.word	0x48000040

00085c04 <.image2.ram.text_13>:
   85c04:	48000280 	.word	0x48000280

00085c08 <.image2.ram.text_14>:
   85c08:	0008bb18 	.word	0x0008bb18

00085c0c <.image2.ram.text_15>:
   85c0c:	48000344 	.word	0x48000344

00085c10 <.image2.ram.text_16>:
   85c10:	fffffefe 	.word	0xfffffefe

00085c14 <.image2.ram.text_17>:
   85c14:	00085d2c 	.word	0x00085d2c

00085c18 <.image2.ram.text_18>:
   85c18:	f3bf 8f4f 	dsb	sy
   85c1c:	f3bf 8f6f 	isb	sy
   85c20:	4770      	bx	lr
	...

00085c24 <SOCPS_DeepSleep_RAM>:
   85c24:	b580      	push	{r7, lr}
   85c26:	4827      	ldr	r0, [pc, #156]	; (85cc4 <.image2.ram.text_40>)
   85c28:	6800      	ldr	r0, [r0, #0]
   85c2a:	0380      	lsls	r0, r0, #14
   85c2c:	d503      	bpl.n	85c36 <SOCPS_DeepSleep_RAM+0x12>
   85c2e:	bf00      	nop
   85c30:	a027      	add	r0, pc, #156	; (adr r0, 85cd0 <.image2.ram.text_43>)
   85c32:	f77a fc1f 	bl	474 <DiagVSprintf+0x35f>
   85c36:	f7ff fe71 	bl	8591c <?Veneer 11 (3) for SOCPS_DsleepInit>
   85c3a:	f7ff fe77 	bl	8592c <?Veneer 12 (3) for pinmap_deepsleep>
   85c3e:	f7ff fea0 	bl	85982 <SOCPS_ClearWakeEvent>
   85c42:	2001      	movs	r0, #1
   85c44:	f77c fab8 	bl	21b8 <FLASH_Erase+0x71>
   85c48:	2090      	movs	r0, #144	; 0x90
   85c4a:	05c0      	lsls	r0, r0, #23
   85c4c:	6941      	ldr	r1, [r0, #20]
   85c4e:	4a1e      	ldr	r2, [pc, #120]	; (85cc8 <.image2.ram.text_41>)
   85c50:	400a      	ands	r2, r1
   85c52:	0c41      	lsrs	r1, r0, #17
   85c54:	4311      	orrs	r1, r2
   85c56:	6141      	str	r1, [r0, #20]
   85c58:	6801      	ldr	r1, [r0, #0]
   85c5a:	4a1c      	ldr	r2, [pc, #112]	; (85ccc <.image2.ram.text_42>)
   85c5c:	400a      	ands	r2, r1
   85c5e:	6002      	str	r2, [r0, #0]
   85c60:	4813      	ldr	r0, [pc, #76]	; (85cb0 <.image2.ram.text_35>)
   85c62:	6801      	ldr	r1, [r0, #0]
   85c64:	2202      	movs	r2, #2
   85c66:	4391      	bics	r1, r2
   85c68:	2201      	movs	r2, #1
   85c6a:	430a      	orrs	r2, r1
   85c6c:	6002      	str	r2, [r0, #0]
   85c6e:	bf30      	wfi
   85c70:	bd01      	pop	{r0, pc}
	...

00085c74 <.image2.ram.text_20>:
   85c74:	48000058 	.word	0x48000058

00085c78 <.image2.ram.text_21>:
   85c78:	fffff0ff 	.word	0xfffff0ff

00085c7c <.image2.ram.text_22>:
   85c7c:	48000304 	.word	0x48000304

00085c80 <.image2.ram.text_23>:
   85c80:	00086558 	.word	0x00086558

00085c84 <.image2.ram.text_24>:
   85c84:	ffff9fff 	.word	0xffff9fff

00085c88 <.image2.ram.text_25>:
   85c88:	48000224 	.word	0x48000224

00085c8c <.image2.ram.text_26>:
   85c8c:	48000010 	.word	0x48000010

00085c90 <.image2.ram.text_27>:
   85c90:	ffffc3ff 	.word	0xffffc3ff

00085c94 <.image2.ram.text_28>:
   85c94:	ffff0fff 	.word	0xffff0fff

00085c98 <.image2.ram.text_29>:
   85c98:	ffffc1ff 	.word	0xffffc1ff

00085c9c <.image2.ram.text_30>:
   85c9c:	fffe0fff 	.word	0xfffe0fff

00085ca0 <.image2.ram.text_31>:
   85ca0:	48000200 	.word	0x48000200

00085ca4 <.image2.ram.text_32>:
   85ca4:	00085d60 	.word	0x00085d60

00085ca8 <.image2.ram.text_33>:
   85ca8:	48002280 	.word	0x48002280

00085cac <.image2.ram.text_34>:
   85cac:	fffbffff 	.word	0xfffbffff

00085cb0 <.image2.ram.text_35>:
   85cb0:	48000318 	.word	0x48000318

00085cb4 <.image2.ram.text_36>:
   85cb4:	c0000100 	.word	0xc0000100

00085cb8 <.image2.ram.text_37>:
   85cb8:	000801f8 	.word	0x000801f8

00085cbc <.image2.ram.text_38>:
   85cbc:	e000ef50 	.word	0xe000ef50

00085cc0 <.image2.ram.text_39>:
   85cc0:	e000ed14 	.word	0xe000ed14

00085cc4 <.image2.ram.text_40>:
   85cc4:	000801cc 	.word	0x000801cc

00085cc8 <.image2.ram.text_41>:
   85cc8:	ffff43ff 	.word	0xffff43ff

00085ccc <.image2.ram.text_42>:
   85ccc:	feffffff 	.word	0xfeffffff

00085cd0 <.image2.ram.text_43>:
   85cd0:	44304d0d 	.word	0x44304d0d
   85cd4:	000a2053 	.word	0x000a2053

00085cd8 <?Veneer 2 (3) for TaskIdle_8721D>:
   85cd8:	b408      	push	{r3}
   85cda:	4b02      	ldr	r3, [pc, #8]	; (85ce4 <?Veneer 2 (3) for TaskIdle_8721D+0xc>)
   85cdc:	469c      	mov	ip, r3
   85cde:	bc08      	pop	{r3}
   85ce0:	4760      	bx	ip
   85ce2:	46c0      	nop			; (mov r8, r8)
   85ce4:	0c005021 	.word	0x0c005021

00085ce8 <app_taskidle_handler>:
   85ce8:	f7ff bff6 	b.w	85cd8 <?Veneer 2 (3) for TaskIdle_8721D>

00085cec <xHeapRegions>:
   85cec:	0a00 0008 1600 0000 66c8 0008 5000 0000     .........f...P..
	...

00085d04 <uxCriticalNesting>:
   85d04:	aaaa aaaa                                   ....

00085d08 <missing_tick>:
   85d08:	0000 0000                                   ....

00085d0c <wakelock>:
   85d0c:	0001 0000                                   ....

00085d10 <sleepwakelock_timeout>:
   85d10:	0000 0000                                   ....

00085d14 <sleep_type>:
   85d14:	0000 0000                                   ....

00085d18 <sysactive_timeout_temp>:
   85d18:	0000 0000                                   ....

00085d1c <sysactive_timeout_flag>:
   85d1c:	0000 0000                                   ....

00085d20 <system_can_yield>:
   85d20:	0001 0000                                   ....

00085d24 <deepwakelock>:
   85d24:	0001 0000                                   ....

00085d28 <deepwakelock_timeout>:
   85d28:	0000 0000                                   ....

00085d2c <wifi_config>:
	...
   85d34:	0001 0000 0001 0000                         ........

00085d3c <__bss_start__>:
   85d3c:	0000 0000                                   ....

00085d40 <__bss_end__>:
   85d40:	0000 0000                                   ....

00085d44 <cal_ok_log>:
   85d44:	6163 696c 7262 7461 6f69 5f6e 6b6f 5b3a     calibration_ok:[
   85d54:	6425 253a 3a64 6425 205d 000a               %d:%d:%d] ..

00085d60 <km4_sleep_type>:
   85d60:	0000 0000                                   ....

00085d64 <KM4SleepTick>:
   85d64:	0000 0000                                   ....

00085d68 <km4_sleep_timeout>:
   85d68:	ffff ffff                                   ....

00085d6c <km4_wake_event>:
   85d6c:	0000 0000                                   ....

00085d70 <SYSPLL_ON_SEQ>:
   85d70:	0208 4800 ff01 ffff 0000 0000 0000 1000     ...H............
   85d80:	0280 4800 ff01 ffff 0000 0000 0003 0000     ...H............
   85d90:	0000 0000 ff03 ffff 0000 0000 0004 0000     ................
   85da0:	0280 4800 ff01 ffff 0000 0000 0004 0000     ...H............
   85db0:	02b0 4800 ff01 ffff 0000 0000 0000 8000     ...H............
   85dc0:	0000 0000 ff03 ffff 0000 0000 0004 0000     ................
   85dd0:	0264 4800 ff01 ffff 0000 2000 0000 0000     d..H....... ....
   85de0:	02b0 4800 ff01 ffff 0000 0000 0000 6000     ...H...........`
   85df0:	0200 4800 ff01 ffff 0000 0020 0000 0000     ...H...... .....
   85e00:	03f4 4800 ff02 ffff 1000 0000 1000 0000     ...H............
   85e10:	02b0 4800 ff01 ffff 0000 0000 0100 0000     ...H............
   85e20:	ffff ffff ffff ffff 0000 0000 0000 0000     ................

00085e30 <SYSPLL_OFF_SEQ>:
   85e30:	02b0 4800 ff01 ffff 0100 0000 0000 0000     ...H............
   85e40:	0200 4800 ff01 ffff 0000 0000 0000 0020     ...H.......... .
   85e50:	0264 4800 ff01 ffff 0000 0000 0000 2000     d..H........... 
   85e60:	02b0 4800 ff01 ffff 0000 e000 0000 0000     ...H............
   85e70:	ffff ffff ffff ffff 0000 0000 0000 0000     ................

00085e80 <HSPWR_ON_SEQ>:
   85e80:	021c 4800 ff01 ffff 0011 0000 0000 0000     ...H............
   85e90:	0000 0000 ff08 ffff 0000 0000 0000 0000     ................
   85ea0:	0200 4800 ff01 ffff 0000 0000 0002 0000     ...H............
   85eb0:	0200 4800 ff01 ffff 0000 0000 0004 0000     ...H............
   85ec0:	0000 0000 ff03 ffff 0000 0000 00c8 0000     ................
   85ed0:	0200 4800 ff01 ffff 0000 0000 0008 0000     ...H............
   85ee0:	0200 4800 ff01 ffff 0000 0006 0000 0000     ...H............
   85ef0:	021c 4800 ff01 ffff 0000 0000 0001 0000     ...H............
   85f00:	021c 4800 ff01 ffff 0000 0000 0010 0000     ...H............
   85f10:	021c 4800 ff01 ffff 0000 01ff 0000 0101     ...H............
   85f20:	021c 4800 ff01 ffff 0000 0000 000e 0000     ...H............
   85f30:	021c 4800 ff01 ffff 0000 0e00 0000 0000     ...H............
   85f40:	0b08 4800 ff01 ffff ffff ffff 0000 0000     ...H............
   85f50:	0314 4800 ff01 ffff 0000 0000 0001 0000     ...H............
   85f60:	0200 4000 ff01 ffff 0000 0000 0000 0002     ...@............
   85f70:	0210 4000 ff01 ffff 0000 0000 0000 0002     ...@............
   85f80:	ffff ffff ffff ffff 0000 0000 0000 0000     ................

00085f90 <HSCLK_GATE_SEQ>:
   85f90:	021c 4800 ff01 ffff 0000 0000 0000 0002     ...H............
   85fa0:	0000 0000 ff03 ffff 0000 0000 0014 0000     ................
   85fb0:	021c 4800 ff01 ffff 0000 0001 0000 0000     ...H............
   85fc0:	021c 4800 ff01 ffff 0000 0100 0000 0000     ...H............
   85fd0:	021c 4800 ff01 ffff 0010 0000 000f 0000     ...H............
   85fe0:	ffff ffff ffff ffff 0000 0000 0000 0000     ................

00085ff0 <HSCLK_ON_SEQ>:
   85ff0:	0b08 4800 ff01 ffff ffff ffff 0000 0000     ...H............
   86000:	021c 4800 ff01 ffff 0000 0000 0010 0000     ...H............
   86010:	021c 4800 ff01 ffff 0000 0000 0000 0100     ...H............
   86020:	021c 4800 ff01 ffff 0000 0000 0000 0001     ...H............
   86030:	021c 4800 ff01 ffff 0000 0002 0000 0000     ...H............
   86040:	ffff ffff ffff ffff 0000 0000 0000 0000     ................

00086050 <HSPWR_GATE_SEQ>:
   86050:	0208 4000 ff01 ffff 0002 0000 0000 0000     ...@............
   86060:	021c 4800 ff01 ffff 0000 0000 0000 0002     ...H............
   86070:	0000 0000 ff03 ffff 0000 0000 0014 0000     ................
   86080:	021c 4800 ff01 ffff 0000 0001 0000 0000     ...H............
   86090:	021c 4800 ff01 ffff 0000 0100 0000 0000     ...H............
   860a0:	021c 4800 ff01 ffff 001f 0000 0001 0000     ...H............
   860b0:	ffff ffff ffff ffff 0000 0000 0000 0000     ................

000860c0 <HSPWR_WAKE_SEQ>:
   860c0:	0b08 4800 ff01 ffff ffff ffff 0000 0000     ...H............
   860d0:	0200 4800 ff01 ffff 0000 0000 0004 0000     ...H............
   860e0:	0000 0000 ff03 ffff 0000 0000 00c8 0000     ................
   860f0:	0200 4800 ff01 ffff 0000 0000 0008 0000     ...H............
   86100:	0200 4800 ff01 ffff 0000 0004 0000 0000     ...H............
   86110:	021c 4800 ff01 ffff 0000 0000 0010 0000     ...H............
   86120:	021c 4800 ff01 ffff 0000 0000 0000 0100     ...H............
   86130:	021c 4800 ff01 ffff 0000 0000 0000 0001     ...H............
   86140:	021c 4800 ff01 ffff 0000 0002 0000 0000     ...H............
   86150:	021c 4800 ff01 ffff 0000 0000 000e 0000     ...H............
   86160:	0208 4000 ff01 ffff 0000 0000 0002 0000     ...@............
   86170:	ffff ffff ffff ffff 0000 0000 0000 0000     ................

00086180 <km0_pwrmgt_config>:
   86180:	0002 0000 0000 0000 0004 0000 0000 0000     ................
   86190:	0008 0000 0000 0000 0010 0000 0000 0000     ................
   861a0:	0020 0000 0000 0000 0040 0000 0001 0000      .......@.......
   861b0:	0080 0000 0000 0000 0100 0000 0001 0000     ................
   861c0:	0200 0000 0000 0000 0400 0000 0001 0000     ................
   861d0:	ffff ffff 0000 0000                         ........

000861d8 <sleep_wevent_config>:
   861d8:	0000 4000 0000 0000 0000 2000 0001 0000     ...@....... ....
   861e8:	0000 1000 0000 0000 0000 0800 0000 0000     ................
   861f8:	0000 0400 0000 0000 0000 0100 0000 0000     ................
   86208:	0000 0010 0001 0000 0040 0000 0000 0000     ........@.......
   86218:	0020 0000 0001 0000 0010 0000 0000 0000      ...............
   86228:	0004 0000 0000 0000 0002 0000 0000 0000     ................
   86238:	ffff ffff 0000 0000                         ........

00086240 <sleep_aon_wevent_config>:
   86240:	0080 0000 0001 0000 0040 0000 0001 0000     ........@.......
   86250:	0010 0000 0001 0000 0008 0000 0000 0000     ................
   86260:	0004 0000 0000 0000 0002 0000 0001 0000     ................
   86270:	0001 0000 0001 0000 ffff ffff 0000 0000     ................

00086280 <hs_wakeevent_config>:
   86280:	0304 0000 0000 4000 0001 0000 0304 0000     .......@........
   86290:	0000 2000 0000 0000 0304 0000 0000 1000     ... ............
   862a0:	0000 0000 0304 0000 0000 0800 0000 0000     ................
   862b0:	0304 0000 0000 0400 0000 0000 0304 0000     ................
   862c0:	0000 0100 0000 0000 0304 0000 0000 0010     ................
   862d0:	0000 0000 0304 0000 0040 0000 0000 0000     ........@.......
   862e0:	0304 0000 0020 0000 0000 0000 0304 0000     .... ...........
   862f0:	0010 0000 0000 0000 0304 0000 0004 0000     ................
   86300:	0000 0000 0304 0000 0002 0000 0000 0000     ................
   86310:	005c 0000 0080 0000 0000 0000 005c 0000     \...........\...
   86320:	0040 0000 0001 0000 005c 0000 0010 0000     @.......\.......
   86330:	0001 0000 005c 0000 0008 0000 0000 0000     ....\...........
   86340:	005c 0000 0004 0000 0001 0000 005c 0000     \...........\...
   86350:	0002 0000 0000 0000 005c 0000 0001 0000     ........\.......
   86360:	0001 0000 ffff ffff 0000 0000 0000 0000     ................

00086370 <sleep_hsram_config>:
   86370:	0000 8000 0000 0000 0000 4000 0000 0000     ...........@....
   86380:	0000 2000 0000 0000 0000 1000 0001 0000     ... ............
   86390:	0000 0400 0000 0000 0000 0200 0000 0000     ................
   863a0:	0000 0100 0000 0000 0000 0040 0000 0000     ..........@.....
   863b0:	0000 0020 0000 0000 0000 0010 0000 0000     .. .............
   863c0:	0000 0004 0000 0000 0000 0002 0001 0000     ................
   863d0:	0000 0001 0000 0000 4000 0000 0000 0000     .........@......
   863e0:	2000 0000 0001 0000 1000 0000 0000 0000     . ..............
   863f0:	0400 0000 0000 0000 0200 0000 0001 0000     ................
   86400:	0100 0000 0000 0000 0040 0000 0000 0000     ........@.......
   86410:	0020 0000 0000 0000 0010 0000 0000 0000      ...............
   86420:	0004 0000 0000 0000 0002 0000 0000 0000     ................
   86430:	0001 0000 0000 0000 ffff ffff 0000 0000     ................

00086440 <sleep_lsram_config>:
   86440:	0000 0040 0000 0000 0000 0020 0001 0000     ..@....... .....
   86450:	0000 0010 0000 0000 0000 0008 0001 0000     ................
   86460:	0000 0004 0001 0000 0000 0002 0000 0000     ................
   86470:	0000 0001 0000 0000 0040 0000 0000 0000     ........@.......
   86480:	0020 0000 0000 0000 0010 0000 0000 0000      ...............
   86490:	0008 0000 0000 0000 0004 0000 0000 0000     ................
   864a0:	0002 0000 0000 0000 0001 0000 0000 0000     ................
   864b0:	ffff ffff 0000 0000                         ........

000864b8 <dsleep_aon_wevent_config>:
   864b8:	0040 0000 0001 0000 0010 0000 0001 0000     @...............
   864c8:	0008 0000 0001 0000 0004 0000 0000 0000     ................
   864d8:	0002 0000 0001 0000 0001 0000 0001 0000     ................
   864e8:	ffff ffff 0000 0000                         ........

000864f0 <dsleep_lsram_config>:
   864f0:	0004 0000 0000 0000 0002 0000 0001 0000     ................
   86500:	0001 0000 0000 0000 ffff ffff 0000 0000     ................

00086510 <aon_wakepin>:
   86510:	100c 0d14 1511 120e 0f19 1a13               ............

0008651c <sleep_wakepin_config>:
	...
   86524:	0001 0000 0000 0000 0000 0000 0001 0000     ................
	...
   8653c:	0001 0000 0000 0000 0000 0000 0001 0000     ................
   8654c:	ffff ffff 0000 0000 0000 0000               ............

00086558 <ps_config>:
   86558:	0001 0000 0000 0000 0000 0000 0001 0000     ................
	...
   86570:	0001 0000 0000 0000 0000 0000 0000 0000     ................
	...

00086590 <SystemCoreClock>:
   86590:	2d00 0131                                   .-1.

00086594 <__cmd_table_start__>:
   86594:	0000 0000                                   ....

00086598 <__cmd_table_end__>:
   86598:	0000 0000                                   ....

0008659c <wifi_enable>:
	...

0008659d <wifi_disable>:
	...

0008659e <wifi_first_boot>:
   8659e:	0001                                             .

0008659f <wifi_is_enable>:
	...

000865a0 <TaskIdle_8721D::PCToggle>:
   865a0:	0000 0000                                   ....

000865a4 <fw_comm_sema>:
   865a4:	0000 0000                                   ....

000865a8 <fw_ipc_cmd_sema>:
   865a8:	0000 0000                                   ....

000865ac <ARFB_table>:
   865ac:	f01f 0fff 0000 0f00 0ff0 0000 0000 f00f     ................
   865bc:	0fff 0000 0f00 0ff0 0000 0000 f010 0fff     ................
   865cc:	0000 1000 0ff0 0000 0000 0ff5 0000 0000     ................
   865dc:	f000 000f 0000 0000 000d 0000 0000 1000     ................
   865ec:	fff0 00ff 0000 f010 003f 0000 0000 0000     ........?.......

000865fc <RATE_UP_FAIL_WAITING>:
   865fc:	0402 1008 1410 1c18 201c 2020 1410 1c18     .........   ....
   8660c:	201c 2020                                   .   

00086610 <PT_PENALTY>:
   86610:	0619 0204 1800 0000                         ........

00086618 <DIFF2VAR_TABLE>:
   86618:	0706 0908 0b0a 0d0c 0e0e 0000               ............

00086624 <RATE_DOWN_PROB>:
   86624:	3232 3224 4332 434b 434b 594b 3232 4b43     22$22CKCKCKY22CK
   86634:	4b43 5a59                                   CKYZ

00086638 <RATE_DOWN_PROB_SGI2LGI>:
   86638:	3232 3224 4332 434b 434b 594b 5858 5858     22$22CKCKCKYXXXX
   86648:	5858 5858                                   XXXX

0008664c <RATE_UP_PROB>:
   8664c:	5352 5554 5453 5655 5857 5a59 5756 5958     RSTUSTUVWXYZVWXY
   8665c:	5b5a 5d5c                                   Z[\]

00086660 <DROPING_NECESSARY>:
   86660:	0101 0101 0201 0403 0605 0807 0201 0403     ................
   86670:	0605 0807                                   ....

00086674 <TRYING_NECESSARY_idx>:
   86674:	0000 0100 0000 0101 0201 0302 0100 0101     ................
   86684:	0201 0302                                   ....

00086688 <NormalFWCmdTable>:
   86688:	11fc 0c01 0000 0000 a7dd 0c00 1044 0c01     ............D...
   86698:	1200 0c01 0004 0000 a6dd 0c00 106c 0c01     ............l...
   866a8:	1204 0c01 0004 0000 a90d 0c00 10dc 0c01     ................
   866b8:	1208 0c01 0008 0000 aa59 0c00 1134 0c01     ........Y...4...

Disassembly of section A4 rw:

0c000030 <os_heap_init>:
 c000030:	4801      	ldr	r0, [pc, #4]	; (c000038 <os_heap_init+0x8>)
 c000032:	f000 b883 	b.w	c00013c <vPortDefineHeapRegions>
 c000036:	bf00      	nop
 c000038:	00085cec 	.word	0x00085cec

0c00003c <pvPortMalloc>:
 c00003c:	b5f8      	push	{r3, r4, r5, r6, r7, lr}
 c00003e:	0006      	movs	r6, r0
 c000040:	2400      	movs	r4, #0
 c000042:	2700      	movs	r7, #0
 c000044:	f000 f9aa 	bl	c00039c <vTaskSuspendAll>
 c000048:	4d55      	ldr	r5, [pc, #340]	; (c0001a0 <.text_11>)
 c00004a:	6968      	ldr	r0, [r5, #20]
 c00004c:	4030      	ands	r0, r6
 c00004e:	d134      	bne.n	c0000ba <.text_4>
 c000050:	b39e      	cbz	r6, c0000ba <.text_4>
 c000052:	3620      	adds	r6, #32
 c000054:	0030      	movs	r0, r6
 c000056:	211f      	movs	r1, #31
 c000058:	4208      	tst	r0, r1
 c00005a:	d003      	beq.n	c000064 <pvPortMalloc+0x28>
 c00005c:	0002      	movs	r2, r0
 c00005e:	3220      	adds	r2, #32
 c000060:	4001      	ands	r1, r0
 c000062:	1a50      	subs	r0, r2, r1
 c000064:	b348      	cbz	r0, c0000ba <.text_4>
 c000066:	68e9      	ldr	r1, [r5, #12]
 c000068:	4281      	cmp	r1, r0
 c00006a:	d326      	bcc.n	c0000ba <.text_4>
 c00006c:	0029      	movs	r1, r5
 c00006e:	682e      	ldr	r6, [r5, #0]
 c000070:	6872      	ldr	r2, [r6, #4]
 c000072:	4282      	cmp	r2, r0
 c000074:	d204      	bcs.n	c000080 <pvPortMalloc+0x44>
 c000076:	6832      	ldr	r2, [r6, #0]
 c000078:	b112      	cbz	r2, c000080 <pvPortMalloc+0x44>
 c00007a:	0031      	movs	r1, r6
 c00007c:	0016      	movs	r6, r2
 c00007e:	e7f7      	b.n	c000070 <pvPortMalloc+0x34>
 c000080:	68aa      	ldr	r2, [r5, #8]
 c000082:	4296      	cmp	r6, r2
 c000084:	d019      	beq.n	c0000ba <.text_4>
 c000086:	680f      	ldr	r7, [r1, #0]
 c000088:	3720      	adds	r7, #32
 c00008a:	6832      	ldr	r2, [r6, #0]
 c00008c:	600a      	str	r2, [r1, #0]
 c00008e:	6871      	ldr	r1, [r6, #4]
 c000090:	1a09      	subs	r1, r1, r0
 c000092:	2941      	cmp	r1, #65	; 0x41
 c000094:	d305      	bcc.n	c0000a2 <pvPortMalloc+0x66>
 c000096:	1d32      	adds	r2, r6, #4
 c000098:	5011      	str	r1, [r2, r0]
 c00009a:	6070      	str	r0, [r6, #4]
 c00009c:	1830      	adds	r0, r6, r0
 c00009e:	f000 f829 	bl	c0000f4 <prvInsertBlockIntoFreeList>
 c0000a2:	6870      	ldr	r0, [r6, #4]
 c0000a4:	68e9      	ldr	r1, [r5, #12]
 c0000a6:	1a09      	subs	r1, r1, r0
 c0000a8:	60e9      	str	r1, [r5, #12]
 c0000aa:	692a      	ldr	r2, [r5, #16]
 c0000ac:	4291      	cmp	r1, r2
 c0000ae:	d200      	bcs.n	c0000b2 <pvPortMalloc+0x76>
 c0000b0:	6129      	str	r1, [r5, #16]
 c0000b2:	6969      	ldr	r1, [r5, #20]
 c0000b4:	4301      	orrs	r1, r0
 c0000b6:	6071      	str	r1, [r6, #4]
 c0000b8:	6034      	str	r4, [r6, #0]

0c0000ba <.text_4>:
 c0000ba:	f000 f986 	bl	c0003ca <xTaskResumeAll>
 c0000be:	0038      	movs	r0, r7
 c0000c0:	bdf2      	pop	{r1, r4, r5, r6, r7, pc}

0c0000c2 <vPortFree>:
 c0000c2:	b538      	push	{r3, r4, r5, lr}
 c0000c4:	0005      	movs	r5, r0
 c0000c6:	d014      	beq.n	c0000f2 <vPortFree+0x30>
 c0000c8:	3d20      	subs	r5, #32
 c0000ca:	6868      	ldr	r0, [r5, #4]
 c0000cc:	4c34      	ldr	r4, [pc, #208]	; (c0001a0 <.text_11>)
 c0000ce:	6961      	ldr	r1, [r4, #20]
 c0000d0:	4208      	tst	r0, r1
 c0000d2:	d00e      	beq.n	c0000f2 <vPortFree+0x30>
 c0000d4:	682a      	ldr	r2, [r5, #0]
 c0000d6:	b962      	cbnz	r2, c0000f2 <vPortFree+0x30>
 c0000d8:	4388      	bics	r0, r1
 c0000da:	6068      	str	r0, [r5, #4]
 c0000dc:	f000 f95e 	bl	c00039c <vTaskSuspendAll>
 c0000e0:	68e0      	ldr	r0, [r4, #12]
 c0000e2:	6869      	ldr	r1, [r5, #4]
 c0000e4:	1840      	adds	r0, r0, r1
 c0000e6:	60e0      	str	r0, [r4, #12]
 c0000e8:	0028      	movs	r0, r5
 c0000ea:	f000 f803 	bl	c0000f4 <prvInsertBlockIntoFreeList>
 c0000ee:	f000 f96c 	bl	c0003ca <xTaskResumeAll>
 c0000f2:	bd31      	pop	{r0, r4, r5, pc}

0c0000f4 <prvInsertBlockIntoFreeList>:
 c0000f4:	b430      	push	{r4, r5}
 c0000f6:	4a2a      	ldr	r2, [pc, #168]	; (c0001a0 <.text_11>)
 c0000f8:	0011      	movs	r1, r2
 c0000fa:	e000      	b.n	c0000fe <prvInsertBlockIntoFreeList+0xa>
 c0000fc:	0019      	movs	r1, r3
 c0000fe:	680b      	ldr	r3, [r1, #0]
 c000100:	4283      	cmp	r3, r0
 c000102:	d3fb      	bcc.n	c0000fc <prvInsertBlockIntoFreeList+0x8>
 c000104:	684b      	ldr	r3, [r1, #4]
 c000106:	18cc      	adds	r4, r1, r3
 c000108:	4284      	cmp	r4, r0
 c00010a:	d103      	bne.n	c000114 <prvInsertBlockIntoFreeList+0x20>
 c00010c:	6840      	ldr	r0, [r0, #4]
 c00010e:	1818      	adds	r0, r3, r0
 c000110:	6048      	str	r0, [r1, #4]
 c000112:	0008      	movs	r0, r1
 c000114:	6844      	ldr	r4, [r0, #4]
 c000116:	680b      	ldr	r3, [r1, #0]
 c000118:	1905      	adds	r5, r0, r4
 c00011a:	429d      	cmp	r5, r3
 c00011c:	d108      	bne.n	c000130 <prvInsertBlockIntoFreeList+0x3c>
 c00011e:	6892      	ldr	r2, [r2, #8]
 c000120:	4293      	cmp	r3, r2
 c000122:	d004      	beq.n	c00012e <prvInsertBlockIntoFreeList+0x3a>
 c000124:	685a      	ldr	r2, [r3, #4]
 c000126:	18a2      	adds	r2, r4, r2
 c000128:	6042      	str	r2, [r0, #4]
 c00012a:	681b      	ldr	r3, [r3, #0]
 c00012c:	e000      	b.n	c000130 <prvInsertBlockIntoFreeList+0x3c>
 c00012e:	0013      	movs	r3, r2
 c000130:	6003      	str	r3, [r0, #0]
 c000132:	4281      	cmp	r1, r0
 c000134:	d000      	beq.n	c000138 <prvInsertBlockIntoFreeList+0x44>
 c000136:	6008      	str	r0, [r1, #0]
 c000138:	bc30      	pop	{r4, r5}
 c00013a:	4770      	bx	lr

0c00013c <vPortDefineHeapRegions>:
 c00013c:	b4f8      	push	{r3, r4, r5, r6, r7}
 c00013e:	2200      	movs	r2, #0
 c000140:	2400      	movs	r4, #0
 c000142:	2500      	movs	r5, #0
 c000144:	0006      	movs	r6, r0
 c000146:	4b16      	ldr	r3, [pc, #88]	; (c0001a0 <.text_11>)
 c000148:	9000      	str	r0, [sp, #0]
 c00014a:	e01e      	b.n	c00018a <vPortDefineHeapRegions+0x4e>
 c00014c:	6836      	ldr	r6, [r6, #0]
 c00014e:	0030      	movs	r0, r6
 c000150:	06c7      	lsls	r7, r0, #27
 c000152:	d004      	beq.n	c00015e <vPortDefineHeapRegions+0x22>
 c000154:	301f      	adds	r0, #31
 c000156:	271f      	movs	r7, #31
 c000158:	43b8      	bics	r0, r7
 c00015a:	1a09      	subs	r1, r1, r0
 c00015c:	1989      	adds	r1, r1, r6
 c00015e:	0007      	movs	r7, r0
 c000160:	b90d      	cbnz	r5, c000166 <vPortDefineHeapRegions+0x2a>
 c000162:	601f      	str	r7, [r3, #0]
 c000164:	605a      	str	r2, [r3, #4]
 c000166:	689e      	ldr	r6, [r3, #8]
 c000168:	1840      	adds	r0, r0, r1
 c00016a:	3820      	subs	r0, #32
 c00016c:	211f      	movs	r1, #31
 c00016e:	4388      	bics	r0, r1
 c000170:	6098      	str	r0, [r3, #8]
 c000172:	6042      	str	r2, [r0, #4]
 c000174:	6002      	str	r2, [r0, #0]
 c000176:	1bc1      	subs	r1, r0, r7
 c000178:	6079      	str	r1, [r7, #4]
 c00017a:	6038      	str	r0, [r7, #0]
 c00017c:	b106      	cbz	r6, c000180 <vPortDefineHeapRegions+0x44>
 c00017e:	6037      	str	r7, [r6, #0]
 c000180:	1864      	adds	r4, r4, r1
 c000182:	1c6d      	adds	r5, r5, #1
 c000184:	9800      	ldr	r0, [sp, #0]
 c000186:	00e9      	lsls	r1, r5, #3
 c000188:	1846      	adds	r6, r0, r1
 c00018a:	6871      	ldr	r1, [r6, #4]
 c00018c:	2900      	cmp	r1, #0
 c00018e:	d1dd      	bne.n	c00014c <vPortDefineHeapRegions+0x10>
 c000190:	611c      	str	r4, [r3, #16]
 c000192:	60dc      	str	r4, [r3, #12]
 c000194:	2080      	movs	r0, #128	; 0x80
 c000196:	0600      	lsls	r0, r0, #24
 c000198:	6158      	str	r0, [r3, #20]
 c00019a:	bcf1      	pop	{r0, r4, r5, r6, r7}
 c00019c:	4770      	bx	lr
	...

0c0001a0 <.text_11>:
 c0001a0:	0008b6c8 	.word	0x0008b6c8

0c0001a4 <xTaskCreate>:
 c0001a4:	b5f6      	push	{r1, r2, r4, r5, r6, r7, lr}
 c0001a6:	b085      	sub	sp, #20
 c0001a8:	0007      	movs	r7, r0
 c0001aa:	000c      	movs	r4, r1
 c0001ac:	001d      	movs	r5, r3
 c0001ae:	0090      	lsls	r0, r2, #2
 c0001b0:	f7ff ff44 	bl	c00003c <pvPortMalloc>
 c0001b4:	0006      	movs	r6, r0
 c0001b6:	d01d      	beq.n	c0001f4 <xTaskCreate+0x50>
 c0001b8:	205c      	movs	r0, #92	; 0x5c
 c0001ba:	f7ff ff3f 	bl	c00003c <pvPortMalloc>
 c0001be:	9004      	str	r0, [sp, #16]
 c0001c0:	b1a8      	cbz	r0, c0001ee <xTaskCreate+0x4a>
 c0001c2:	9a0d      	ldr	r2, [sp, #52]	; 0x34
 c0001c4:	9b0c      	ldr	r3, [sp, #48]	; 0x30
 c0001c6:	0021      	movs	r1, r4
 c0001c8:	0038      	movs	r0, r7
 c0001ca:	9c04      	ldr	r4, [sp, #16]
 c0001cc:	6326      	str	r6, [r4, #48]	; 0x30
 c0001ce:	2400      	movs	r4, #0
 c0001d0:	9403      	str	r4, [sp, #12]
 c0001d2:	9c04      	ldr	r4, [sp, #16]
 c0001d4:	9402      	str	r4, [sp, #8]
 c0001d6:	9201      	str	r2, [sp, #4]
 c0001d8:	9300      	str	r3, [sp, #0]
 c0001da:	002b      	movs	r3, r5
 c0001dc:	466a      	mov	r2, sp
 c0001de:	8b12      	ldrh	r2, [r2, #24]
 c0001e0:	f000 f80c 	bl	c0001fc <prvInitialiseNewTask>
 c0001e4:	9804      	ldr	r0, [sp, #16]
 c0001e6:	f000 f84c 	bl	c000282 <prvAddNewTaskToReadyList>
 c0001ea:	2001      	movs	r0, #1
 c0001ec:	e004      	b.n	c0001f8 <xTaskCreate+0x54>
 c0001ee:	0030      	movs	r0, r6
 c0001f0:	f7ff ff67 	bl	c0000c2 <vPortFree>
 c0001f4:	2000      	movs	r0, #0
 c0001f6:	43c0      	mvns	r0, r0
 c0001f8:	b007      	add	sp, #28
 c0001fa:	bdf0      	pop	{r4, r5, r6, r7, pc}

0c0001fc <prvInitialiseNewTask>:
 c0001fc:	b5f9      	push	{r0, r3, r4, r5, r6, r7, lr}
 c0001fe:	b081      	sub	sp, #4
 c000200:	000e      	movs	r6, r1
 c000202:	0015      	movs	r5, r2
 c000204:	9c0a      	ldr	r4, [sp, #40]	; 0x28
 c000206:	22a5      	movs	r2, #165	; 0xa5
 c000208:	00a9      	lsls	r1, r5, #2
 c00020a:	6b20      	ldr	r0, [r4, #48]	; 0x30
 c00020c:	f000 fb50 	bl	c0008b0 <__iar_small_Memset4_word>
 c000210:	6b20      	ldr	r0, [r4, #48]	; 0x30
 c000212:	00a9      	lsls	r1, r5, #2
 c000214:	1847      	adds	r7, r0, r1
 c000216:	1f3f      	subs	r7, r7, #4
 c000218:	201f      	movs	r0, #31
 c00021a:	4387      	bics	r7, r0
 c00021c:	6427      	str	r7, [r4, #64]	; 0x40
 c00021e:	0020      	movs	r0, r4
 c000220:	3034      	adds	r0, #52	; 0x34
 c000222:	2500      	movs	r5, #0
 c000224:	b166      	cbz	r6, c000240 <prvInitialiseNewTask+0x44>
 c000226:	2100      	movs	r1, #0
 c000228:	1872      	adds	r2, r6, r1
 c00022a:	7813      	ldrb	r3, [r2, #0]
 c00022c:	5443      	strb	r3, [r0, r1]
 c00022e:	2300      	movs	r3, #0
 c000230:	56d2      	ldrsb	r2, [r2, r3]
 c000232:	b112      	cbz	r2, c00023a <prvInitialiseNewTask+0x3e>
 c000234:	1c49      	adds	r1, r1, #1
 c000236:	290a      	cmp	r1, #10
 c000238:	d3f6      	bcc.n	c000228 <prvInitialiseNewTask+0x2c>
 c00023a:	213d      	movs	r1, #61	; 0x3d
 c00023c:	5465      	strb	r5, [r4, r1]
 c00023e:	e000      	b.n	c000242 <prvInitialiseNewTask+0x46>
 c000240:	7005      	strb	r5, [r0, #0]
 c000242:	9e08      	ldr	r6, [sp, #32]
 c000244:	2e0a      	cmp	r6, #10
 c000246:	d900      	bls.n	c00024a <prvInitialiseNewTask+0x4e>
 c000248:	260a      	movs	r6, #10
 c00024a:	62e6      	str	r6, [r4, #44]	; 0x2c
 c00024c:	64e6      	str	r6, [r4, #76]	; 0x4c
 c00024e:	6525      	str	r5, [r4, #80]	; 0x50
 c000250:	1d20      	adds	r0, r4, #4
 c000252:	f000 fb42 	bl	c0008da <vListInitialiseItem>
 c000256:	0020      	movs	r0, r4
 c000258:	3018      	adds	r0, #24
 c00025a:	f000 fb3e 	bl	c0008da <vListInitialiseItem>
 c00025e:	6124      	str	r4, [r4, #16]
 c000260:	200b      	movs	r0, #11
 c000262:	1b80      	subs	r0, r0, r6
 c000264:	61a0      	str	r0, [r4, #24]
 c000266:	6264      	str	r4, [r4, #36]	; 0x24
 c000268:	6565      	str	r5, [r4, #84]	; 0x54
 c00026a:	2058      	movs	r0, #88	; 0x58
 c00026c:	5425      	strb	r5, [r4, r0]
 c00026e:	9a02      	ldr	r2, [sp, #8]
 c000270:	9901      	ldr	r1, [sp, #4]
 c000272:	0038      	movs	r0, r7
 c000274:	f000 fb7e 	bl	c000974 <pxPortInitialiseStack>
 c000278:	6020      	str	r0, [r4, #0]
 c00027a:	9809      	ldr	r0, [sp, #36]	; 0x24
 c00027c:	b100      	cbz	r0, c000280 <prvInitialiseNewTask+0x84>
 c00027e:	6004      	str	r4, [r0, #0]
 c000280:	bdf7      	pop	{r0, r1, r2, r4, r5, r6, r7, pc}

0c000282 <prvAddNewTaskToReadyList>:
 c000282:	b5f8      	push	{r3, r4, r5, r6, r7, lr}
 c000284:	0004      	movs	r4, r0
 c000286:	f000 fbab 	bl	c0009e0 <vPortEnterCritical>
 c00028a:	4d30      	ldr	r5, [pc, #192]	; (c00034c <.text_17>)
 c00028c:	6ce8      	ldr	r0, [r5, #76]	; 0x4c
 c00028e:	1c40      	adds	r0, r0, #1
 c000290:	64e8      	str	r0, [r5, #76]	; 0x4c
 c000292:	4f2f      	ldr	r7, [pc, #188]	; (c000350 <.text_18>)
 c000294:	6aa8      	ldr	r0, [r5, #40]	; 0x28
 c000296:	bb28      	cbnz	r0, c0002e4 <prvAddNewTaskToReadyList+0x62>
 c000298:	62ac      	str	r4, [r5, #40]	; 0x28
 c00029a:	6ce8      	ldr	r0, [r5, #76]	; 0x4c
 c00029c:	2801      	cmp	r0, #1
 c00029e:	d129      	bne.n	c0002f4 <prvAddNewTaskToReadyList+0x72>
 c0002a0:	2600      	movs	r6, #0
 c0002a2:	2014      	movs	r0, #20
 c0002a4:	4370      	muls	r0, r6
 c0002a6:	1838      	adds	r0, r7, r0
 c0002a8:	f000 fb08 	bl	c0008bc <vListInitialise>
 c0002ac:	1c76      	adds	r6, r6, #1
 c0002ae:	2e0b      	cmp	r6, #11
 c0002b0:	d3f7      	bcc.n	c0002a2 <prvAddNewTaskToReadyList+0x20>
 c0002b2:	0028      	movs	r0, r5
 c0002b4:	3074      	adds	r0, #116	; 0x74
 c0002b6:	f000 fb01 	bl	c0008bc <vListInitialise>
 c0002ba:	002e      	movs	r6, r5
 c0002bc:	3688      	adds	r6, #136	; 0x88
 c0002be:	0030      	movs	r0, r6
 c0002c0:	f000 fafc 	bl	c0008bc <vListInitialise>
 c0002c4:	0028      	movs	r0, r5
 c0002c6:	f000 faf9 	bl	c0008bc <vListInitialise>
 c0002ca:	0028      	movs	r0, r5
 c0002cc:	3014      	adds	r0, #20
 c0002ce:	f000 faf5 	bl	c0008bc <vListInitialise>
 c0002d2:	0028      	movs	r0, r5
 c0002d4:	3038      	adds	r0, #56	; 0x38
 c0002d6:	f000 faf1 	bl	c0008bc <vListInitialise>
 c0002da:	0028      	movs	r0, r5
 c0002dc:	3074      	adds	r0, #116	; 0x74
 c0002de:	62e8      	str	r0, [r5, #44]	; 0x2c
 c0002e0:	632e      	str	r6, [r5, #48]	; 0x30
 c0002e2:	e007      	b.n	c0002f4 <prvAddNewTaskToReadyList+0x72>
 c0002e4:	6da8      	ldr	r0, [r5, #88]	; 0x58
 c0002e6:	b928      	cbnz	r0, c0002f4 <prvAddNewTaskToReadyList+0x72>
 c0002e8:	6ae0      	ldr	r0, [r4, #44]	; 0x2c
 c0002ea:	6aa9      	ldr	r1, [r5, #40]	; 0x28
 c0002ec:	6ac9      	ldr	r1, [r1, #44]	; 0x2c
 c0002ee:	4288      	cmp	r0, r1
 c0002f0:	d300      	bcc.n	c0002f4 <prvAddNewTaskToReadyList+0x72>
 c0002f2:	62ac      	str	r4, [r5, #40]	; 0x28
 c0002f4:	6ea8      	ldr	r0, [r5, #104]	; 0x68
 c0002f6:	1c40      	adds	r0, r0, #1
 c0002f8:	66a8      	str	r0, [r5, #104]	; 0x68
 c0002fa:	6460      	str	r0, [r4, #68]	; 0x44
 c0002fc:	6ae0      	ldr	r0, [r4, #44]	; 0x2c
 c0002fe:	6d69      	ldr	r1, [r5, #84]	; 0x54
 c000300:	4281      	cmp	r1, r0
 c000302:	d200      	bcs.n	c000306 <prvAddNewTaskToReadyList+0x84>
 c000304:	6568      	str	r0, [r5, #84]	; 0x54
 c000306:	1d21      	adds	r1, r4, #4
 c000308:	2214      	movs	r2, #20
 c00030a:	4350      	muls	r0, r2
 c00030c:	1838      	adds	r0, r7, r0
 c00030e:	f000 fae7 	bl	c0008e0 <vListInsertEnd>
 c000312:	f000 fb71 	bl	c0009f8 <vPortExitCritical>
 c000316:	6da8      	ldr	r0, [r5, #88]	; 0x58
 c000318:	b120      	cbz	r0, c000324 <prvAddNewTaskToReadyList+0xa2>
 c00031a:	f000 fa95 	bl	c000848 <.text_79>
 c00031e:	d201      	bcs.n	c000324 <prvAddNewTaskToReadyList+0xa2>
 c000320:	f000 fb58 	bl	c0009d4 <vPortYield>
 c000324:	bdf1      	pop	{r0, r4, r5, r6, r7, pc}

0c000326 <.text_8>:
 c000326:	0028      	movs	r0, r5
 c000328:	3018      	adds	r0, #24
 c00032a:	f000 bb00 	b.w	c00092e <uxListRemove>

0c00032e <vTaskDelay>:
 c00032e:	b580      	push	{r7, lr}
 c000330:	b148      	cbz	r0, c000346 <vTaskDelay+0x18>
 c000332:	4906      	ldr	r1, [pc, #24]	; (c00034c <.text_17>)
 c000334:	6f0a      	ldr	r2, [r1, #112]	; 0x70
 c000336:	1c52      	adds	r2, r2, #1
 c000338:	670a      	str	r2, [r1, #112]	; 0x70
 c00033a:	2100      	movs	r1, #0
 c00033c:	f000 fa89 	bl	c000852 <prvAddCurrentTaskToDelayedList>
 c000340:	f000 f843 	bl	c0003ca <xTaskResumeAll>
 c000344:	b908      	cbnz	r0, c00034a <vTaskDelay+0x1c>
 c000346:	f000 fb45 	bl	c0009d4 <vPortYield>
 c00034a:	bd01      	pop	{r0, pc}

0c00034c <.text_17>:
 c00034c:	0008bb20 	.word	0x0008bb20

0c000350 <.text_18>:
 c000350:	0008bbc0 	.word	0x0008bbc0

0c000354 <vTaskStartScheduler>:
 c000354:	b51c      	push	{r2, r3, r4, lr}
 c000356:	4c66      	ldr	r4, [pc, #408]	; (c0004f0 <.text_36>)
 c000358:	0020      	movs	r0, r4
 c00035a:	309c      	adds	r0, #156	; 0x9c
 c00035c:	9001      	str	r0, [sp, #4]
 c00035e:	2000      	movs	r0, #0
 c000360:	9000      	str	r0, [sp, #0]
 c000362:	2300      	movs	r3, #0
 c000364:	f240 2200 	movw	r2, #512	; 0x200
 c000368:	a10a      	add	r1, pc, #40	; (adr r1, c000394 <.text_21>)
 c00036a:	4884      	ldr	r0, [pc, #528]	; (c00057c <.text_42>)
 c00036c:	f7ff ff1a 	bl	c0001a4 <xTaskCreate>
 c000370:	2801      	cmp	r0, #1
 c000372:	d101      	bne.n	c000378 <vTaskStartScheduler+0x24>
 c000374:	f000 fb80 	bl	c000a78 <xTimerCreateTimerTask>
 c000378:	2801      	cmp	r0, #1
 c00037a:	d109      	bne.n	c000390 <vTaskStartScheduler+0x3c>
 c00037c:	b672      	cpsid	i
 c00037e:	2000      	movs	r0, #0
 c000380:	43c0      	mvns	r0, r0
 c000382:	66e0      	str	r0, [r4, #108]	; 0x6c
 c000384:	2001      	movs	r0, #1
 c000386:	65a0      	str	r0, [r4, #88]	; 0x58
 c000388:	2000      	movs	r0, #0
 c00038a:	6520      	str	r0, [r4, #80]	; 0x50
 c00038c:	f000 fb02 	bl	c000994 <xPortStartScheduler>
 c000390:	bd13      	pop	{r0, r1, r4, pc}
	...

0c000394 <.text_21>:
 c000394:	454c4449 	.word	0x454c4449
 c000398:	00000000 	.word	0x00000000

0c00039c <vTaskSuspendAll>:
 c00039c:	4873      	ldr	r0, [pc, #460]	; (c00056c <.text_39>)
 c00039e:	6f01      	ldr	r1, [r0, #112]	; 0x70
 c0003a0:	1c49      	adds	r1, r1, #1
 c0003a2:	6701      	str	r1, [r0, #112]	; 0x70
 c0003a4:	4770      	bx	lr

0c0003a6 <prvGetExpectedIdleTime>:
 c0003a6:	2000      	movs	r0, #0
 c0003a8:	2200      	movs	r2, #0
 c0003aa:	4970      	ldr	r1, [pc, #448]	; (c00056c <.text_39>)
 c0003ac:	6d4b      	ldr	r3, [r1, #84]	; 0x54
 c0003ae:	b103      	cbz	r3, c0003b2 <prvGetExpectedIdleTime+0xc>
 c0003b0:	2201      	movs	r2, #1
 c0003b2:	6a8b      	ldr	r3, [r1, #40]	; 0x28
 c0003b4:	6adb      	ldr	r3, [r3, #44]	; 0x2c
 c0003b6:	b93b      	cbnz	r3, c0003c8 <prvGetExpectedIdleTime+0x22>
 c0003b8:	4b8c      	ldr	r3, [pc, #560]	; (c0005ec <.text_45>)
 c0003ba:	681b      	ldr	r3, [r3, #0]
 c0003bc:	2b01      	cmp	r3, #1
 c0003be:	d803      	bhi.n	c0003c8 <prvGetExpectedIdleTime+0x22>
 c0003c0:	b912      	cbnz	r2, c0003c8 <prvGetExpectedIdleTime+0x22>
 c0003c2:	6ec8      	ldr	r0, [r1, #108]	; 0x6c
 c0003c4:	6d09      	ldr	r1, [r1, #80]	; 0x50
 c0003c6:	1a40      	subs	r0, r0, r1
 c0003c8:	4770      	bx	lr

0c0003ca <xTaskResumeAll>:
 c0003ca:	b5f8      	push	{r3, r4, r5, r6, r7, lr}
 c0003cc:	2700      	movs	r7, #0
 c0003ce:	2600      	movs	r6, #0
 c0003d0:	9700      	str	r7, [sp, #0]
 c0003d2:	f000 fb05 	bl	c0009e0 <vPortEnterCritical>
 c0003d6:	4c65      	ldr	r4, [pc, #404]	; (c00056c <.text_39>)
 c0003d8:	6f20      	ldr	r0, [r4, #112]	; 0x70
 c0003da:	1e40      	subs	r0, r0, #1
 c0003dc:	6720      	str	r0, [r4, #112]	; 0x70
 c0003de:	6f20      	ldr	r0, [r4, #112]	; 0x70
 c0003e0:	bb38      	cbnz	r0, c000432 <xTaskResumeAll+0x68>
 c0003e2:	6ce0      	ldr	r0, [r4, #76]	; 0x4c
 c0003e4:	b980      	cbnz	r0, c000408 <xTaskResumeAll+0x3e>
 c0003e6:	e024      	b.n	c000432 <xTaskResumeAll+0x68>
 c0003e8:	68e0      	ldr	r0, [r4, #12]
 c0003ea:	68c6      	ldr	r6, [r0, #12]
 c0003ec:	0030      	movs	r0, r6
 c0003ee:	f7ff ff9b 	bl	c000328 <.text_8+0x2>
 c0003f2:	1d30      	adds	r0, r6, #4
 c0003f4:	f000 fa9b 	bl	c00092e <uxListRemove>
 c0003f8:	f000 f86e 	bl	c0004d8 <.text_35>
 c0003fc:	6af0      	ldr	r0, [r6, #44]	; 0x2c
 c0003fe:	6aa1      	ldr	r1, [r4, #40]	; 0x28
 c000400:	6ac9      	ldr	r1, [r1, #44]	; 0x2c
 c000402:	4288      	cmp	r0, r1
 c000404:	d300      	bcc.n	c000408 <xTaskResumeAll+0x3e>
 c000406:	6625      	str	r5, [r4, #96]	; 0x60
 c000408:	2501      	movs	r5, #1
 c00040a:	6820      	ldr	r0, [r4, #0]
 c00040c:	2800      	cmp	r0, #0
 c00040e:	d1eb      	bne.n	c0003e8 <xTaskResumeAll+0x1e>
 c000410:	b10e      	cbz	r6, c000416 <xTaskResumeAll+0x4c>
 c000412:	f000 f968 	bl	c0006e6 <prvResetNextTaskUnblockTime>
 c000416:	6de6      	ldr	r6, [r4, #92]	; 0x5c
 c000418:	b136      	cbz	r6, c000428 <xTaskResumeAll+0x5e>
 c00041a:	f000 f817 	bl	c00044c <xTaskIncrementTick>
 c00041e:	b100      	cbz	r0, c000422 <xTaskResumeAll+0x58>
 c000420:	6625      	str	r5, [r4, #96]	; 0x60
 c000422:	1e76      	subs	r6, r6, #1
 c000424:	d1f9      	bne.n	c00041a <xTaskResumeAll+0x50>
 c000426:	65e7      	str	r7, [r4, #92]	; 0x5c
 c000428:	6e20      	ldr	r0, [r4, #96]	; 0x60
 c00042a:	b110      	cbz	r0, c000432 <xTaskResumeAll+0x68>
 c00042c:	9500      	str	r5, [sp, #0]
 c00042e:	f000 fad1 	bl	c0009d4 <vPortYield>
 c000432:	f000 fae1 	bl	c0009f8 <vPortExitCritical>
 c000436:	9800      	ldr	r0, [sp, #0]
 c000438:	bdf2      	pop	{r1, r4, r5, r6, r7, pc}

0c00043a <xTaskGetTickCount>:
 c00043a:	e7ff      	b.n	c00043c <.text_28>

0c00043c <.text_28>:
 c00043c:	484b      	ldr	r0, [pc, #300]	; (c00056c <.text_39>)
 c00043e:	6d00      	ldr	r0, [r0, #80]	; 0x50
 c000440:	4770      	bx	lr

0c000442 <vTaskStepTick>:
 c000442:	494a      	ldr	r1, [pc, #296]	; (c00056c <.text_39>)
 c000444:	6d0a      	ldr	r2, [r1, #80]	; 0x50
 c000446:	1810      	adds	r0, r2, r0
 c000448:	6508      	str	r0, [r1, #80]	; 0x50
 c00044a:	4770      	bx	lr

0c00044c <xTaskIncrementTick>:
 c00044c:	b5f8      	push	{r3, r4, r5, r6, r7, lr}
 c00044e:	2500      	movs	r5, #0
 c000450:	4c27      	ldr	r4, [pc, #156]	; (c0004f0 <.text_36>)
 c000452:	6f20      	ldr	r0, [r4, #112]	; 0x70
 c000454:	2800      	cmp	r0, #0
 c000456:	d137      	bne.n	c0004c8 <xTaskIncrementTick+0x7c>
 c000458:	6d27      	ldr	r7, [r4, #80]	; 0x50
 c00045a:	1c7f      	adds	r7, r7, #1
 c00045c:	6527      	str	r7, [r4, #80]	; 0x50
 c00045e:	d108      	bne.n	c000472 <xTaskIncrementTick+0x26>
 c000460:	6ae0      	ldr	r0, [r4, #44]	; 0x2c
 c000462:	6b21      	ldr	r1, [r4, #48]	; 0x30
 c000464:	62e1      	str	r1, [r4, #44]	; 0x2c
 c000466:	6320      	str	r0, [r4, #48]	; 0x30
 c000468:	6e60      	ldr	r0, [r4, #100]	; 0x64
 c00046a:	1c40      	adds	r0, r0, #1
 c00046c:	6660      	str	r0, [r4, #100]	; 0x64
 c00046e:	f000 f93a 	bl	c0006e6 <prvResetNextTaskUnblockTime>
 c000472:	6ee0      	ldr	r0, [r4, #108]	; 0x6c
 c000474:	4287      	cmp	r7, r0
 c000476:	d31a      	bcc.n	c0004ae <xTaskIncrementTick+0x62>
 c000478:	e00f      	b.n	c00049a <xTaskIncrementTick+0x4e>
 c00047a:	1d30      	adds	r0, r6, #4
 c00047c:	f000 fa57 	bl	c00092e <uxListRemove>
 c000480:	6ab0      	ldr	r0, [r6, #40]	; 0x28
 c000482:	b110      	cbz	r0, c00048a <xTaskIncrementTick+0x3e>
 c000484:	0030      	movs	r0, r6
 c000486:	f7ff ff4f 	bl	c000328 <.text_8+0x2>
 c00048a:	f000 f825 	bl	c0004d8 <.text_35>
 c00048e:	6af0      	ldr	r0, [r6, #44]	; 0x2c
 c000490:	6aa1      	ldr	r1, [r4, #40]	; 0x28
 c000492:	6ac9      	ldr	r1, [r1, #44]	; 0x2c
 c000494:	4288      	cmp	r0, r1
 c000496:	d300      	bcc.n	c00049a <xTaskIncrementTick+0x4e>
 c000498:	2501      	movs	r5, #1
 c00049a:	6ae0      	ldr	r0, [r4, #44]	; 0x2c
 c00049c:	6800      	ldr	r0, [r0, #0]
 c00049e:	b180      	cbz	r0, c0004c2 <xTaskIncrementTick+0x76>
 c0004a0:	6ae0      	ldr	r0, [r4, #44]	; 0x2c
 c0004a2:	68c0      	ldr	r0, [r0, #12]
 c0004a4:	68c6      	ldr	r6, [r0, #12]
 c0004a6:	6870      	ldr	r0, [r6, #4]
 c0004a8:	4287      	cmp	r7, r0
 c0004aa:	d2e6      	bcs.n	c00047a <xTaskIncrementTick+0x2e>
 c0004ac:	66e0      	str	r0, [r4, #108]	; 0x6c
 c0004ae:	6aa0      	ldr	r0, [r4, #40]	; 0x28
 c0004b0:	494e      	ldr	r1, [pc, #312]	; (c0005ec <.text_45>)
 c0004b2:	6ac0      	ldr	r0, [r0, #44]	; 0x2c
 c0004b4:	2214      	movs	r2, #20
 c0004b6:	4350      	muls	r0, r2
 c0004b8:	5808      	ldr	r0, [r1, r0]
 c0004ba:	2802      	cmp	r0, #2
 c0004bc:	d307      	bcc.n	c0004ce <xTaskIncrementTick+0x82>
 c0004be:	2501      	movs	r5, #1
 c0004c0:	e005      	b.n	c0004ce <xTaskIncrementTick+0x82>
 c0004c2:	2000      	movs	r0, #0
 c0004c4:	43c0      	mvns	r0, r0
 c0004c6:	e7f1      	b.n	c0004ac <xTaskIncrementTick+0x60>
 c0004c8:	6de0      	ldr	r0, [r4, #92]	; 0x5c
 c0004ca:	1c40      	adds	r0, r0, #1
 c0004cc:	65e0      	str	r0, [r4, #92]	; 0x5c
 c0004ce:	6e20      	ldr	r0, [r4, #96]	; 0x60
 c0004d0:	b100      	cbz	r0, c0004d4 <xTaskIncrementTick+0x88>
 c0004d2:	2501      	movs	r5, #1
 c0004d4:	0028      	movs	r0, r5
 c0004d6:	bdf2      	pop	{r1, r4, r5, r6, r7, pc}

0c0004d8 <.text_35>:
 c0004d8:	6af0      	ldr	r0, [r6, #44]	; 0x2c
 c0004da:	6d61      	ldr	r1, [r4, #84]	; 0x54
 c0004dc:	4281      	cmp	r1, r0
 c0004de:	d200      	bcs.n	c0004e2 <.text_35+0xa>
 c0004e0:	6560      	str	r0, [r4, #84]	; 0x54
 c0004e2:	1d31      	adds	r1, r6, #4
 c0004e4:	4a41      	ldr	r2, [pc, #260]	; (c0005ec <.text_45>)
 c0004e6:	2314      	movs	r3, #20
 c0004e8:	4358      	muls	r0, r3
 c0004ea:	1810      	adds	r0, r2, r0
 c0004ec:	f000 b9f8 	b.w	c0008e0 <vListInsertEnd>

0c0004f0 <.text_36>:
 c0004f0:	0008bb20 	.word	0x0008bb20

0c0004f4 <vTaskSwitchContext>:
 c0004f4:	b510      	push	{r4, lr}
 c0004f6:	4c1d      	ldr	r4, [pc, #116]	; (c00056c <.text_39>)
 c0004f8:	6f20      	ldr	r0, [r4, #112]	; 0x70
 c0004fa:	b110      	cbz	r0, c000502 <vTaskSwitchContext+0xe>
 c0004fc:	2001      	movs	r0, #1
 c0004fe:	6620      	str	r0, [r4, #96]	; 0x60
 c000500:	bd10      	pop	{r4, pc}
 c000502:	6620      	str	r0, [r4, #96]	; 0x60
 c000504:	6aa0      	ldr	r0, [r4, #40]	; 0x28
 c000506:	6b00      	ldr	r0, [r0, #48]	; 0x30
 c000508:	4971      	ldr	r1, [pc, #452]	; (c0006d0 <.text_56>)
 c00050a:	6802      	ldr	r2, [r0, #0]
 c00050c:	428a      	cmp	r2, r1
 c00050e:	d108      	bne.n	c000522 <vTaskSwitchContext+0x2e>
 c000510:	6842      	ldr	r2, [r0, #4]
 c000512:	428a      	cmp	r2, r1
 c000514:	d105      	bne.n	c000522 <vTaskSwitchContext+0x2e>
 c000516:	6882      	ldr	r2, [r0, #8]
 c000518:	428a      	cmp	r2, r1
 c00051a:	d102      	bne.n	c000522 <vTaskSwitchContext+0x2e>
 c00051c:	68c0      	ldr	r0, [r0, #12]
 c00051e:	4288      	cmp	r0, r1
 c000520:	d004      	beq.n	c00052c <vTaskSwitchContext+0x38>
 c000522:	6aa1      	ldr	r1, [r4, #40]	; 0x28
 c000524:	3134      	adds	r1, #52	; 0x34
 c000526:	6aa0      	ldr	r0, [r4, #40]	; 0x28
 c000528:	f000 fa80 	bl	c000a2c <vApplicationStackOverflowHook>
 c00052c:	6d60      	ldr	r0, [r4, #84]	; 0x54
 c00052e:	e000      	b.n	c000532 <vTaskSwitchContext+0x3e>
 c000530:	1e40      	subs	r0, r0, #1
 c000532:	492e      	ldr	r1, [pc, #184]	; (c0005ec <.text_45>)
 c000534:	2214      	movs	r2, #20
 c000536:	4342      	muls	r2, r0
 c000538:	1889      	adds	r1, r1, r2
 c00053a:	680a      	ldr	r2, [r1, #0]
 c00053c:	2a00      	cmp	r2, #0
 c00053e:	d0f7      	beq.n	c000530 <vTaskSwitchContext+0x3c>
 c000540:	684a      	ldr	r2, [r1, #4]
 c000542:	6852      	ldr	r2, [r2, #4]
 c000544:	604a      	str	r2, [r1, #4]
 c000546:	000b      	movs	r3, r1
 c000548:	3308      	adds	r3, #8
 c00054a:	429a      	cmp	r2, r3
 c00054c:	d101      	bne.n	c000552 <vTaskSwitchContext+0x5e>
 c00054e:	6852      	ldr	r2, [r2, #4]
 c000550:	604a      	str	r2, [r1, #4]
 c000552:	6849      	ldr	r1, [r1, #4]
 c000554:	68c9      	ldr	r1, [r1, #12]
 c000556:	62a1      	str	r1, [r4, #40]	; 0x28
 c000558:	6560      	str	r0, [r4, #84]	; 0x54
 c00055a:	bd10      	pop	{r4, pc}

0c00055c <vTaskPlaceOnEventList>:
 c00055c:	b510      	push	{r4, lr}
 c00055e:	000c      	movs	r4, r1
 c000560:	496e      	ldr	r1, [pc, #440]	; (c00071c <.text_62>)
 c000562:	6a89      	ldr	r1, [r1, #40]	; 0x28
 c000564:	3118      	adds	r1, #24
 c000566:	f000 f9c7 	bl	c0008f8 <vListInsert>
 c00056a:	e001      	b.n	c000570 <.text_41>

0c00056c <.text_39>:
 c00056c:	0008bb20 	.word	0x0008bb20

0c000570 <.text_41>:
 c000570:	2101      	movs	r1, #1
 c000572:	0020      	movs	r0, r4
 c000574:	f000 f96d 	bl	c000852 <prvAddCurrentTaskToDelayedList>
 c000578:	bd10      	pop	{r4, pc}
	...

0c00057c <.text_42>:
 c00057c:	0c00065f 	.word	0x0c00065f

0c000580 <vTaskPlaceOnEventListRestricted>:
 c000580:	b538      	push	{r3, r4, r5, lr}
 c000582:	000c      	movs	r4, r1
 c000584:	0015      	movs	r5, r2
 c000586:	4965      	ldr	r1, [pc, #404]	; (c00071c <.text_62>)
 c000588:	6a89      	ldr	r1, [r1, #40]	; 0x28
 c00058a:	3118      	adds	r1, #24
 c00058c:	f000 f9a8 	bl	c0008e0 <vListInsertEnd>
 c000590:	b10d      	cbz	r5, c000596 <vTaskPlaceOnEventListRestricted+0x16>
 c000592:	2400      	movs	r4, #0
 c000594:	43e4      	mvns	r4, r4
 c000596:	0029      	movs	r1, r5
 c000598:	0020      	movs	r0, r4
 c00059a:	f000 f95a 	bl	c000852 <prvAddCurrentTaskToDelayedList>
 c00059e:	bd31      	pop	{r0, r4, r5, pc}

0c0005a0 <xTaskRemoveFromEventList>:
 c0005a0:	b538      	push	{r3, r4, r5, lr}
 c0005a2:	68c0      	ldr	r0, [r0, #12]
 c0005a4:	68c5      	ldr	r5, [r0, #12]
 c0005a6:	f7ff febe 	bl	c000326 <.text_8>
 c0005aa:	4c5c      	ldr	r4, [pc, #368]	; (c00071c <.text_62>)
 c0005ac:	6f20      	ldr	r0, [r4, #112]	; 0x70
 c0005ae:	b968      	cbnz	r0, c0005cc <xTaskRemoveFromEventList+0x2c>
 c0005b0:	1d28      	adds	r0, r5, #4
 c0005b2:	f000 f9bc 	bl	c00092e <uxListRemove>
 c0005b6:	6ae8      	ldr	r0, [r5, #44]	; 0x2c
 c0005b8:	6d61      	ldr	r1, [r4, #84]	; 0x54
 c0005ba:	4281      	cmp	r1, r0
 c0005bc:	d200      	bcs.n	c0005c0 <xTaskRemoveFromEventList+0x20>
 c0005be:	6560      	str	r0, [r4, #84]	; 0x54
 c0005c0:	1d29      	adds	r1, r5, #4
 c0005c2:	f000 f8fd 	bl	c0007c0 <.text_66>
 c0005c6:	f000 f88e 	bl	c0006e6 <prvResetNextTaskUnblockTime>
 c0005ca:	e004      	b.n	c0005d6 <xTaskRemoveFromEventList+0x36>
 c0005cc:	0029      	movs	r1, r5
 c0005ce:	3118      	adds	r1, #24
 c0005d0:	0020      	movs	r0, r4
 c0005d2:	f000 f985 	bl	c0008e0 <vListInsertEnd>
 c0005d6:	6aa0      	ldr	r0, [r4, #40]	; 0x28
 c0005d8:	6ac0      	ldr	r0, [r0, #44]	; 0x2c
 c0005da:	6ae9      	ldr	r1, [r5, #44]	; 0x2c
 c0005dc:	4288      	cmp	r0, r1
 c0005de:	d202      	bcs.n	c0005e6 <xTaskRemoveFromEventList+0x46>
 c0005e0:	2001      	movs	r0, #1
 c0005e2:	6620      	str	r0, [r4, #96]	; 0x60
 c0005e4:	bd32      	pop	{r1, r4, r5, pc}
 c0005e6:	2000      	movs	r0, #0
 c0005e8:	bd32      	pop	{r1, r4, r5, pc}
	...

0c0005ec <.text_45>:
 c0005ec:	0008bbc0 	.word	0x0008bbc0

0c0005f0 <vTaskInternalSetTimeOutState>:
 c0005f0:	494a      	ldr	r1, [pc, #296]	; (c00071c <.text_62>)
 c0005f2:	6e4a      	ldr	r2, [r1, #100]	; 0x64
 c0005f4:	6002      	str	r2, [r0, #0]
 c0005f6:	6d09      	ldr	r1, [r1, #80]	; 0x50
 c0005f8:	6041      	str	r1, [r0, #4]
 c0005fa:	4770      	bx	lr

0c0005fc <xTaskCheckForTimeOut>:
 c0005fc:	b5fe      	push	{r1, r2, r3, r4, r5, r6, r7, lr}
 c0005fe:	0005      	movs	r5, r0
 c000600:	000c      	movs	r4, r1
 c000602:	f000 f9ed 	bl	c0009e0 <vPortEnterCritical>
 c000606:	4a45      	ldr	r2, [pc, #276]	; (c00071c <.text_62>)
 c000608:	6d10      	ldr	r0, [r2, #80]	; 0x50
 c00060a:	9002      	str	r0, [sp, #8]
 c00060c:	6868      	ldr	r0, [r5, #4]
 c00060e:	9001      	str	r0, [sp, #4]
 c000610:	9802      	ldr	r0, [sp, #8]
 c000612:	9901      	ldr	r1, [sp, #4]
 c000614:	1a40      	subs	r0, r0, r1
 c000616:	9000      	str	r0, [sp, #0]
 c000618:	6823      	ldr	r3, [r4, #0]
 c00061a:	2000      	movs	r0, #0
 c00061c:	2100      	movs	r1, #0
 c00061e:	43c9      	mvns	r1, r1
 c000620:	428b      	cmp	r3, r1
 c000622:	d010      	beq.n	c000646 <xTaskCheckForTimeOut+0x4a>
 c000624:	6e56      	ldr	r6, [r2, #100]	; 0x64
 c000626:	682f      	ldr	r7, [r5, #0]
 c000628:	42be      	cmp	r6, r7
 c00062a:	d003      	beq.n	c000634 <xTaskCheckForTimeOut+0x38>
 c00062c:	9e02      	ldr	r6, [sp, #8]
 c00062e:	9f01      	ldr	r7, [sp, #4]
 c000630:	42be      	cmp	r6, r7
 c000632:	d20b      	bcs.n	c00064c <xTaskCheckForTimeOut+0x50>
 c000634:	9e00      	ldr	r6, [sp, #0]
 c000636:	429e      	cmp	r6, r3
 c000638:	d207      	bcs.n	c00064a <xTaskCheckForTimeOut+0x4e>
 c00063a:	1b99      	subs	r1, r3, r6
 c00063c:	6021      	str	r1, [r4, #0]
 c00063e:	6e51      	ldr	r1, [r2, #100]	; 0x64
 c000640:	6029      	str	r1, [r5, #0]
 c000642:	6d11      	ldr	r1, [r2, #80]	; 0x50
 c000644:	6069      	str	r1, [r5, #4]
 c000646:	2400      	movs	r4, #0
 c000648:	e001      	b.n	c00064e <xTaskCheckForTimeOut+0x52>
 c00064a:	6020      	str	r0, [r4, #0]
 c00064c:	2401      	movs	r4, #1
 c00064e:	f000 f9d3 	bl	c0009f8 <vPortExitCritical>
 c000652:	0020      	movs	r0, r4
 c000654:	bdfe      	pop	{r1, r2, r3, r4, r5, r6, r7, pc}

0c000656 <vTaskMissedYield>:
 c000656:	2001      	movs	r0, #1
 c000658:	4930      	ldr	r1, [pc, #192]	; (c00071c <.text_62>)
 c00065a:	6608      	str	r0, [r1, #96]	; 0x60
 c00065c:	4770      	bx	lr

0c00065e <prvIdleTask>:
 c00065e:	b538      	push	{r3, r4, r5, lr}
 c000660:	4c2e      	ldr	r4, [pc, #184]	; (c00071c <.text_62>)
 c000662:	e011      	b.n	c000688 <prvIdleTask+0x2a>
 c000664:	f000 f9bc 	bl	c0009e0 <vPortEnterCritical>
 c000668:	6a20      	ldr	r0, [r4, #32]
 c00066a:	68c5      	ldr	r5, [r0, #12]
 c00066c:	1d28      	adds	r0, r5, #4
 c00066e:	f000 f95e 	bl	c00092e <uxListRemove>
 c000672:	6ce0      	ldr	r0, [r4, #76]	; 0x4c
 c000674:	1e40      	subs	r0, r0, #1
 c000676:	64e0      	str	r0, [r4, #76]	; 0x4c
 c000678:	6b60      	ldr	r0, [r4, #52]	; 0x34
 c00067a:	1e40      	subs	r0, r0, #1
 c00067c:	6360      	str	r0, [r4, #52]	; 0x34
 c00067e:	f000 f9bb 	bl	c0009f8 <vPortExitCritical>
 c000682:	0028      	movs	r0, r5
 c000684:	f000 f826 	bl	c0006d4 <prvDeleteTCB>
 c000688:	6b60      	ldr	r0, [r4, #52]	; 0x34
 c00068a:	2800      	cmp	r0, #0
 c00068c:	d1ea      	bne.n	c000664 <prvIdleTask+0x6>
 c00068e:	f000 f9ca 	bl	c000a26 <vApplicationIdleHook>
 c000692:	f7ff fe88 	bl	c0003a6 <prvGetExpectedIdleTime>
 c000696:	2802      	cmp	r0, #2
 c000698:	d3f6      	bcc.n	c000688 <prvIdleTask+0x2a>
 c00069a:	6f20      	ldr	r0, [r4, #112]	; 0x70
 c00069c:	1c40      	adds	r0, r0, #1
 c00069e:	6720      	str	r0, [r4, #112]	; 0x70
 c0006a0:	f7ff fe81 	bl	c0003a6 <prvGetExpectedIdleTime>
 c0006a4:	2802      	cmp	r0, #2
 c0006a6:	d301      	bcc.n	c0006ac <prvIdleTask+0x4e>
 c0006a8:	f000 fc90 	bl	c000fcc <vPortSuppressTicksAndSleep>
 c0006ac:	f7ff fe8d 	bl	c0003ca <xTaskResumeAll>
 c0006b0:	e7ea      	b.n	c000688 <prvIdleTask+0x2a>

0c0006b2 <eTaskConfirmSleepModeStatus>:
 c0006b2:	2001      	movs	r0, #1
 c0006b4:	4919      	ldr	r1, [pc, #100]	; (c00071c <.text_62>)
 c0006b6:	680a      	ldr	r2, [r1, #0]
 c0006b8:	b90a      	cbnz	r2, c0006be <eTaskConfirmSleepModeStatus+0xc>
 c0006ba:	6e0a      	ldr	r2, [r1, #96]	; 0x60
 c0006bc:	b10a      	cbz	r2, c0006c2 <eTaskConfirmSleepModeStatus+0x10>
 c0006be:	2000      	movs	r0, #0
 c0006c0:	4770      	bx	lr
 c0006c2:	6b8a      	ldr	r2, [r1, #56]	; 0x38
 c0006c4:	6cc9      	ldr	r1, [r1, #76]	; 0x4c
 c0006c6:	1e49      	subs	r1, r1, #1
 c0006c8:	428a      	cmp	r2, r1
 c0006ca:	d100      	bne.n	c0006ce <eTaskConfirmSleepModeStatus+0x1c>
 c0006cc:	2002      	movs	r0, #2
 c0006ce:	4770      	bx	lr

0c0006d0 <.text_56>:
 c0006d0:	a5a5a5a5 	.word	0xa5a5a5a5

0c0006d4 <prvDeleteTCB>:
 c0006d4:	b510      	push	{r4, lr}
 c0006d6:	0004      	movs	r4, r0
 c0006d8:	6b20      	ldr	r0, [r4, #48]	; 0x30
 c0006da:	f7ff fcf2 	bl	c0000c2 <vPortFree>
 c0006de:	0020      	movs	r0, r4
 c0006e0:	f7ff fcef 	bl	c0000c2 <vPortFree>
 c0006e4:	bd10      	pop	{r4, pc}

0c0006e6 <prvResetNextTaskUnblockTime>:
 c0006e6:	480d      	ldr	r0, [pc, #52]	; (c00071c <.text_62>)
 c0006e8:	6ac1      	ldr	r1, [r0, #44]	; 0x2c
 c0006ea:	6809      	ldr	r1, [r1, #0]
 c0006ec:	b911      	cbnz	r1, c0006f4 <prvResetNextTaskUnblockTime+0xe>
 c0006ee:	2100      	movs	r1, #0
 c0006f0:	43c9      	mvns	r1, r1
 c0006f2:	e003      	b.n	c0006fc <prvResetNextTaskUnblockTime+0x16>
 c0006f4:	6ac1      	ldr	r1, [r0, #44]	; 0x2c
 c0006f6:	68c9      	ldr	r1, [r1, #12]
 c0006f8:	68c9      	ldr	r1, [r1, #12]
 c0006fa:	6849      	ldr	r1, [r1, #4]
 c0006fc:	66c1      	str	r1, [r0, #108]	; 0x6c
 c0006fe:	4770      	bx	lr

0c000700 <xTaskGetCurrentTaskHandle>:
 c000700:	484f      	ldr	r0, [pc, #316]	; (c000840 <.text_76>)
 c000702:	6a80      	ldr	r0, [r0, #40]	; 0x28
 c000704:	4770      	bx	lr

0c000706 <xTaskGetSchedulerState>:
 c000706:	484e      	ldr	r0, [pc, #312]	; (c000840 <.text_76>)
 c000708:	6d81      	ldr	r1, [r0, #88]	; 0x58
 c00070a:	b909      	cbnz	r1, c000710 <xTaskGetSchedulerState+0xa>
 c00070c:	2001      	movs	r0, #1
 c00070e:	4770      	bx	lr
 c000710:	6f00      	ldr	r0, [r0, #112]	; 0x70
 c000712:	b908      	cbnz	r0, c000718 <xTaskGetSchedulerState+0x12>
 c000714:	2002      	movs	r0, #2
 c000716:	4770      	bx	lr
 c000718:	2000      	movs	r0, #0
 c00071a:	4770      	bx	lr

0c00071c <.text_62>:
 c00071c:	0008bb20 	.word	0x0008bb20

0c000720 <xTaskPriorityInherit>:
 c000720:	b570      	push	{r4, r5, r6, lr}
 c000722:	0005      	movs	r5, r0
 c000724:	2000      	movs	r0, #0
 c000726:	b365      	cbz	r5, c000782 <xTaskPriorityInherit+0x62>
 c000728:	6ae9      	ldr	r1, [r5, #44]	; 0x2c
 c00072a:	4e45      	ldr	r6, [pc, #276]	; (c000840 <.text_76>)
 c00072c:	6ab2      	ldr	r2, [r6, #40]	; 0x28
 c00072e:	6ad2      	ldr	r2, [r2, #44]	; 0x2c
 c000730:	4291      	cmp	r1, r2
 c000732:	d220      	bcs.n	c000776 <xTaskPriorityInherit+0x56>
 c000734:	69a8      	ldr	r0, [r5, #24]
 c000736:	2800      	cmp	r0, #0
 c000738:	d404      	bmi.n	c000744 <xTaskPriorityInherit+0x24>
 c00073a:	200b      	movs	r0, #11
 c00073c:	6ab2      	ldr	r2, [r6, #40]	; 0x28
 c00073e:	6ad2      	ldr	r2, [r2, #44]	; 0x2c
 c000740:	1a80      	subs	r0, r0, r2
 c000742:	61a8      	str	r0, [r5, #24]
 c000744:	4c3f      	ldr	r4, [pc, #252]	; (c000844 <.text_77>)
 c000746:	6968      	ldr	r0, [r5, #20]
 c000748:	2214      	movs	r2, #20
 c00074a:	4351      	muls	r1, r2
 c00074c:	1861      	adds	r1, r4, r1
 c00074e:	4288      	cmp	r0, r1
 c000750:	d10d      	bne.n	c00076e <xTaskPriorityInherit+0x4e>
 c000752:	1d28      	adds	r0, r5, #4
 c000754:	f000 f8eb 	bl	c00092e <uxListRemove>
 c000758:	6ab0      	ldr	r0, [r6, #40]	; 0x28
 c00075a:	6ac0      	ldr	r0, [r0, #44]	; 0x2c
 c00075c:	62e8      	str	r0, [r5, #44]	; 0x2c
 c00075e:	6d71      	ldr	r1, [r6, #84]	; 0x54
 c000760:	4281      	cmp	r1, r0
 c000762:	d200      	bcs.n	c000766 <xTaskPriorityInherit+0x46>
 c000764:	6570      	str	r0, [r6, #84]	; 0x54
 c000766:	1d29      	adds	r1, r5, #4
 c000768:	f000 f80c 	bl	c000784 <.text_64>
 c00076c:	e008      	b.n	c000780 <xTaskPriorityInherit+0x60>
 c00076e:	6ab0      	ldr	r0, [r6, #40]	; 0x28
 c000770:	6ac0      	ldr	r0, [r0, #44]	; 0x2c
 c000772:	62e8      	str	r0, [r5, #44]	; 0x2c
 c000774:	e004      	b.n	c000780 <xTaskPriorityInherit+0x60>
 c000776:	6ce9      	ldr	r1, [r5, #76]	; 0x4c
 c000778:	6ab2      	ldr	r2, [r6, #40]	; 0x28
 c00077a:	6ad2      	ldr	r2, [r2, #44]	; 0x2c
 c00077c:	4291      	cmp	r1, r2
 c00077e:	d200      	bcs.n	c000782 <xTaskPriorityInherit+0x62>
 c000780:	2001      	movs	r0, #1
 c000782:	bd70      	pop	{r4, r5, r6, pc}

0c000784 <.text_64>:
 c000784:	2214      	movs	r2, #20
 c000786:	4350      	muls	r0, r2
 c000788:	1820      	adds	r0, r4, r0
 c00078a:	f000 b8a9 	b.w	c0008e0 <vListInsertEnd>

0c00078e <xTaskPriorityDisinherit>:
 c00078e:	b510      	push	{r4, lr}
 c000790:	0004      	movs	r4, r0
 c000792:	2000      	movs	r0, #0
 c000794:	b19c      	cbz	r4, c0007be <xTaskPriorityDisinherit+0x30>
 c000796:	6d21      	ldr	r1, [r4, #80]	; 0x50
 c000798:	1e49      	subs	r1, r1, #1
 c00079a:	6521      	str	r1, [r4, #80]	; 0x50
 c00079c:	6ae2      	ldr	r2, [r4, #44]	; 0x2c
 c00079e:	6ce3      	ldr	r3, [r4, #76]	; 0x4c
 c0007a0:	429a      	cmp	r2, r3
 c0007a2:	d00c      	beq.n	c0007be <xTaskPriorityDisinherit+0x30>
 c0007a4:	b959      	cbnz	r1, c0007be <xTaskPriorityDisinherit+0x30>
 c0007a6:	f000 f83e 	bl	c000826 <.text_69>
 c0007aa:	6ce0      	ldr	r0, [r4, #76]	; 0x4c
 c0007ac:	62e0      	str	r0, [r4, #44]	; 0x2c
 c0007ae:	210b      	movs	r1, #11
 c0007b0:	1a09      	subs	r1, r1, r0
 c0007b2:	61a1      	str	r1, [r4, #24]
 c0007b4:	f000 f830 	bl	c000818 <.text_68>
 c0007b8:	f000 f802 	bl	c0007c0 <.text_66>
 c0007bc:	2001      	movs	r0, #1
 c0007be:	bd10      	pop	{r4, pc}

0c0007c0 <.text_66>:
 c0007c0:	4a20      	ldr	r2, [pc, #128]	; (c000844 <.text_77>)
 c0007c2:	2314      	movs	r3, #20
 c0007c4:	4358      	muls	r0, r3
 c0007c6:	1810      	adds	r0, r2, r0
 c0007c8:	f000 b88a 	b.w	c0008e0 <vListInsertEnd>

0c0007cc <vTaskPriorityDisinheritAfterTimeout>:
 c0007cc:	b538      	push	{r3, r4, r5, lr}
 c0007ce:	0004      	movs	r4, r0
 c0007d0:	d021      	beq.n	c000816 <vTaskPriorityDisinheritAfterTimeout+0x4a>
 c0007d2:	6ce0      	ldr	r0, [r4, #76]	; 0x4c
 c0007d4:	4281      	cmp	r1, r0
 c0007d6:	d200      	bcs.n	c0007da <vTaskPriorityDisinheritAfterTimeout+0xe>
 c0007d8:	0001      	movs	r1, r0
 c0007da:	6ae0      	ldr	r0, [r4, #44]	; 0x2c
 c0007dc:	4288      	cmp	r0, r1
 c0007de:	d01a      	beq.n	c000816 <vTaskPriorityDisinheritAfterTimeout+0x4a>
 c0007e0:	6d22      	ldr	r2, [r4, #80]	; 0x50
 c0007e2:	2a01      	cmp	r2, #1
 c0007e4:	d117      	bne.n	c000816 <vTaskPriorityDisinheritAfterTimeout+0x4a>
 c0007e6:	62e1      	str	r1, [r4, #44]	; 0x2c
 c0007e8:	69a2      	ldr	r2, [r4, #24]
 c0007ea:	2a00      	cmp	r2, #0
 c0007ec:	d402      	bmi.n	c0007f4 <vTaskPriorityDisinheritAfterTimeout+0x28>
 c0007ee:	220b      	movs	r2, #11
 c0007f0:	1a51      	subs	r1, r2, r1
 c0007f2:	61a1      	str	r1, [r4, #24]
 c0007f4:	4d13      	ldr	r5, [pc, #76]	; (c000844 <.text_77>)
 c0007f6:	6961      	ldr	r1, [r4, #20]
 c0007f8:	2214      	movs	r2, #20
 c0007fa:	4350      	muls	r0, r2
 c0007fc:	1828      	adds	r0, r5, r0
 c0007fe:	4281      	cmp	r1, r0
 c000800:	d109      	bne.n	c000816 <vTaskPriorityDisinheritAfterTimeout+0x4a>
 c000802:	f000 f810 	bl	c000826 <.text_69>
 c000806:	6ae0      	ldr	r0, [r4, #44]	; 0x2c
 c000808:	f000 f806 	bl	c000818 <.text_68>
 c00080c:	2214      	movs	r2, #20
 c00080e:	4350      	muls	r0, r2
 c000810:	1828      	adds	r0, r5, r0
 c000812:	f000 f865 	bl	c0008e0 <vListInsertEnd>
 c000816:	bd31      	pop	{r0, r4, r5, pc}

0c000818 <.text_68>:
 c000818:	4909      	ldr	r1, [pc, #36]	; (c000840 <.text_76>)
 c00081a:	6d4a      	ldr	r2, [r1, #84]	; 0x54
 c00081c:	4282      	cmp	r2, r0
 c00081e:	d200      	bcs.n	c000822 <.text_68+0xa>
 c000820:	6548      	str	r0, [r1, #84]	; 0x54
 c000822:	1d21      	adds	r1, r4, #4
 c000824:	4770      	bx	lr

0c000826 <.text_69>:
 c000826:	1d20      	adds	r0, r4, #4
 c000828:	f000 b881 	b.w	c00092e <uxListRemove>

0c00082c <pvTaskIncrementMutexHeldCount>:
 c00082c:	481e      	ldr	r0, [pc, #120]	; (c0008a8 <.text_87>)
 c00082e:	6a81      	ldr	r1, [r0, #40]	; 0x28
 c000830:	b119      	cbz	r1, c00083a <pvTaskIncrementMutexHeldCount+0xe>
 c000832:	6a81      	ldr	r1, [r0, #40]	; 0x28
 c000834:	6d0a      	ldr	r2, [r1, #80]	; 0x50
 c000836:	1c52      	adds	r2, r2, #1
 c000838:	650a      	str	r2, [r1, #80]	; 0x50
 c00083a:	6a80      	ldr	r0, [r0, #40]	; 0x28
 c00083c:	4770      	bx	lr
	...

0c000840 <.text_76>:
 c000840:	0008bb20 	.word	0x0008bb20

0c000844 <.text_77>:
 c000844:	0008bbc0 	.word	0x0008bbc0

0c000848 <.text_79>:
 c000848:	6aa8      	ldr	r0, [r5, #40]	; 0x28
 c00084a:	6ac0      	ldr	r0, [r0, #44]	; 0x2c
 c00084c:	6ae1      	ldr	r1, [r4, #44]	; 0x2c
 c00084e:	4288      	cmp	r0, r1
 c000850:	4770      	bx	lr

0c000852 <prvAddCurrentTaskToDelayedList>:
 c000852:	b5f8      	push	{r3, r4, r5, r6, r7, lr}
 c000854:	0004      	movs	r4, r0
 c000856:	000e      	movs	r6, r1
 c000858:	4d13      	ldr	r5, [pc, #76]	; (c0008a8 <.text_87>)
 c00085a:	6d2f      	ldr	r7, [r5, #80]	; 0x50
 c00085c:	6aa8      	ldr	r0, [r5, #40]	; 0x28
 c00085e:	1d00      	adds	r0, r0, #4
 c000860:	f000 f865 	bl	c00092e <uxListRemove>
 c000864:	2000      	movs	r0, #0
 c000866:	43c0      	mvns	r0, r0
 c000868:	4284      	cmp	r4, r0
 c00086a:	d107      	bne.n	c00087c <prvAddCurrentTaskToDelayedList+0x2a>
 c00086c:	b136      	cbz	r6, c00087c <prvAddCurrentTaskToDelayedList+0x2a>
 c00086e:	6aa8      	ldr	r0, [r5, #40]	; 0x28
 c000870:	1d01      	adds	r1, r0, #4
 c000872:	0028      	movs	r0, r5
 c000874:	3038      	adds	r0, #56	; 0x38
 c000876:	f000 f833 	bl	c0008e0 <vListInsertEnd>
 c00087a:	bdf1      	pop	{r0, r4, r5, r6, r7, pc}
 c00087c:	193c      	adds	r4, r7, r4
 c00087e:	6aa8      	ldr	r0, [r5, #40]	; 0x28
 c000880:	6044      	str	r4, [r0, #4]
 c000882:	42bc      	cmp	r4, r7
 c000884:	6aa8      	ldr	r0, [r5, #40]	; 0x28
 c000886:	d204      	bcs.n	c000892 <prvAddCurrentTaskToDelayedList+0x40>
 c000888:	1d01      	adds	r1, r0, #4
 c00088a:	6b28      	ldr	r0, [r5, #48]	; 0x30
 c00088c:	f000 f834 	bl	c0008f8 <vListInsert>
 c000890:	bdf1      	pop	{r0, r4, r5, r6, r7, pc}
 c000892:	1d01      	adds	r1, r0, #4
 c000894:	6ae8      	ldr	r0, [r5, #44]	; 0x2c
 c000896:	f000 f82f 	bl	c0008f8 <vListInsert>
 c00089a:	6ee8      	ldr	r0, [r5, #108]	; 0x6c
 c00089c:	4284      	cmp	r4, r0
 c00089e:	d200      	bcs.n	c0008a2 <prvAddCurrentTaskToDelayedList+0x50>
 c0008a0:	66ec      	str	r4, [r5, #108]	; 0x6c
 c0008a2:	bdf1      	pop	{r0, r4, r5, r6, r7, pc}
 c0008a4:	0000      	movs	r0, r0
	...

0c0008a8 <.text_87>:
 c0008a8:	0008bb20 	.word	0x0008bb20

0c0008ac <__iar_small_memclr>:
 c0008ac:	2200      	movs	r2, #0
 c0008ae:	bf00      	nop

0c0008b0 <__iar_small_Memset4_word>:
 c0008b0:	4209      	tst	r1, r1
 c0008b2:	d002      	beq.n	c0008ba <__iar_small_Memset4_word+0xa>
 c0008b4:	1e49      	subs	r1, r1, #1
 c0008b6:	5442      	strb	r2, [r0, r1]
 c0008b8:	d1fc      	bne.n	c0008b4 <__iar_small_Memset4_word+0x4>
 c0008ba:	4770      	bx	lr

0c0008bc <vListInitialise>:
 c0008bc:	0001      	movs	r1, r0
 c0008be:	3108      	adds	r1, #8
 c0008c0:	6041      	str	r1, [r0, #4]
 c0008c2:	2100      	movs	r1, #0
 c0008c4:	43c9      	mvns	r1, r1
 c0008c6:	6081      	str	r1, [r0, #8]
 c0008c8:	0001      	movs	r1, r0
 c0008ca:	3108      	adds	r1, #8
 c0008cc:	60c1      	str	r1, [r0, #12]
 c0008ce:	0001      	movs	r1, r0
 c0008d0:	3108      	adds	r1, #8
 c0008d2:	6101      	str	r1, [r0, #16]
 c0008d4:	2100      	movs	r1, #0
 c0008d6:	6001      	str	r1, [r0, #0]
 c0008d8:	4770      	bx	lr

0c0008da <vListInitialiseItem>:
 c0008da:	2100      	movs	r1, #0
 c0008dc:	6101      	str	r1, [r0, #16]
 c0008de:	4770      	bx	lr

0c0008e0 <vListInsertEnd>:
 c0008e0:	6842      	ldr	r2, [r0, #4]
 c0008e2:	604a      	str	r2, [r1, #4]
 c0008e4:	6893      	ldr	r3, [r2, #8]
 c0008e6:	608b      	str	r3, [r1, #8]
 c0008e8:	6893      	ldr	r3, [r2, #8]
 c0008ea:	6059      	str	r1, [r3, #4]
 c0008ec:	6091      	str	r1, [r2, #8]
 c0008ee:	6108      	str	r0, [r1, #16]
 c0008f0:	6801      	ldr	r1, [r0, #0]
 c0008f2:	1c49      	adds	r1, r1, #1
 c0008f4:	6001      	str	r1, [r0, #0]
 c0008f6:	4770      	bx	lr

0c0008f8 <vListInsert>:
 c0008f8:	b430      	push	{r4, r5}
 c0008fa:	680a      	ldr	r2, [r1, #0]
 c0008fc:	2300      	movs	r3, #0
 c0008fe:	43db      	mvns	r3, r3
 c000900:	429a      	cmp	r2, r3
 c000902:	d101      	bne.n	c000908 <vListInsert+0x10>
 c000904:	6903      	ldr	r3, [r0, #16]
 c000906:	e007      	b.n	c000918 <vListInsert+0x20>
 c000908:	0003      	movs	r3, r0
 c00090a:	3308      	adds	r3, #8
 c00090c:	e000      	b.n	c000910 <vListInsert+0x18>
 c00090e:	0023      	movs	r3, r4
 c000910:	685c      	ldr	r4, [r3, #4]
 c000912:	6825      	ldr	r5, [r4, #0]
 c000914:	42aa      	cmp	r2, r5
 c000916:	d2fa      	bcs.n	c00090e <vListInsert+0x16>
 c000918:	685a      	ldr	r2, [r3, #4]
 c00091a:	604a      	str	r2, [r1, #4]
 c00091c:	6091      	str	r1, [r2, #8]
 c00091e:	608b      	str	r3, [r1, #8]
 c000920:	6059      	str	r1, [r3, #4]
 c000922:	6108      	str	r0, [r1, #16]
 c000924:	6801      	ldr	r1, [r0, #0]
 c000926:	1c49      	adds	r1, r1, #1
 c000928:	6001      	str	r1, [r0, #0]
 c00092a:	bc30      	pop	{r4, r5}
 c00092c:	4770      	bx	lr

0c00092e <uxListRemove>:
 c00092e:	6901      	ldr	r1, [r0, #16]
 c000930:	6882      	ldr	r2, [r0, #8]
 c000932:	6843      	ldr	r3, [r0, #4]
 c000934:	609a      	str	r2, [r3, #8]
 c000936:	6842      	ldr	r2, [r0, #4]
 c000938:	6883      	ldr	r3, [r0, #8]
 c00093a:	605a      	str	r2, [r3, #4]
 c00093c:	684a      	ldr	r2, [r1, #4]
 c00093e:	4282      	cmp	r2, r0
 c000940:	d101      	bne.n	c000946 <uxListRemove+0x18>
 c000942:	6882      	ldr	r2, [r0, #8]
 c000944:	604a      	str	r2, [r1, #4]
 c000946:	2200      	movs	r2, #0
 c000948:	6102      	str	r2, [r0, #16]
 c00094a:	6808      	ldr	r0, [r1, #0]
 c00094c:	1e40      	subs	r0, r0, #1
 c00094e:	6008      	str	r0, [r1, #0]
 c000950:	6808      	ldr	r0, [r1, #0]
 c000952:	4770      	bx	lr

0c000954 <?Veneer 15 (3) for DiagPrintf>:
 c000954:	b408      	push	{r3}
 c000956:	4b02      	ldr	r3, [pc, #8]	; (c000960 <?Veneer 15 (3) for DiagPrintf+0xc>)
 c000958:	469c      	mov	ip, r3
 c00095a:	bc08      	pop	{r3}
 c00095c:	4760      	bx	ip
 c00095e:	46c0      	nop			; (mov r8, r8)
 c000960:	00000475 	.word	0x00000475

0c000964 <?Veneer 52 (3) for app_taskidle_handler>:
 c000964:	b408      	push	{r3}
 c000966:	4b02      	ldr	r3, [pc, #8]	; (c000970 <?Veneer 52 (3) for app_taskidle_handler+0xc>)
 c000968:	469c      	mov	ip, r3
 c00096a:	bc08      	pop	{r3}
 c00096c:	4760      	bx	ip
 c00096e:	46c0      	nop			; (mov r8, r8)
 c000970:	00085ce9 	.word	0x00085ce9

0c000974 <pxPortInitialiseStack>:
 c000974:	b410      	push	{r4}
 c000976:	0003      	movs	r3, r0
 c000978:	3b0c      	subs	r3, #12
 c00097a:	2480      	movs	r4, #128	; 0x80
 c00097c:	0464      	lsls	r4, r4, #17
 c00097e:	609c      	str	r4, [r3, #8]
 c000980:	6059      	str	r1, [r3, #4]
 c000982:	492e      	ldr	r1, [pc, #184]	; (c000a3c <.text_15>)
 c000984:	6019      	str	r1, [r3, #0]
 c000986:	3820      	subs	r0, #32
 c000988:	6002      	str	r2, [r0, #0]
 c00098a:	3820      	subs	r0, #32
 c00098c:	bc10      	pop	{r4}
 c00098e:	4770      	bx	lr

0c000990 <prvTaskExitError>:
 c000990:	b672      	cpsid	i
 c000992:	e7fe      	b.n	c000992 <prvTaskExitError+0x2>

0c000994 <xPortStartScheduler>:
 c000994:	b580      	push	{r7, lr}
 c000996:	482a      	ldr	r0, [pc, #168]	; (c000a40 <.text_16>)
 c000998:	6801      	ldr	r1, [r0, #0]
 c00099a:	22ff      	movs	r2, #255	; 0xff
 c00099c:	0412      	lsls	r2, r2, #16
 c00099e:	430a      	orrs	r2, r1
 c0009a0:	6002      	str	r2, [r0, #0]
 c0009a2:	6801      	ldr	r1, [r0, #0]
 c0009a4:	22ff      	movs	r2, #255	; 0xff
 c0009a6:	0612      	lsls	r2, r2, #24
 c0009a8:	430a      	orrs	r2, r1
 c0009aa:	6002      	str	r2, [r0, #0]
 c0009ac:	4825      	ldr	r0, [pc, #148]	; (c000a44 <.text_17>)
 c0009ae:	2100      	movs	r1, #0
 c0009b0:	6001      	str	r1, [r0, #0]
 c0009b2:	6081      	str	r1, [r0, #8]
 c0009b4:	4a24      	ldr	r2, [pc, #144]	; (c000a48 <.text_18>)
 c0009b6:	6812      	ldr	r2, [r2, #0]
 c0009b8:	f240 33e8 	movw	r3, #1000	; 0x3e8
 c0009bc:	fbb2 f2f3 	udiv	r2, r2, r3
 c0009c0:	1e52      	subs	r2, r2, #1
 c0009c2:	6042      	str	r2, [r0, #4]
 c0009c4:	2207      	movs	r2, #7
 c0009c6:	6002      	str	r2, [r0, #0]
 c0009c8:	4820      	ldr	r0, [pc, #128]	; (c000a4c <.text_19>)
 c0009ca:	6001      	str	r1, [r0, #0]
 c0009cc:	f010 fedb 	bl	c011786 <vPortStartFirstTask>
 c0009d0:	2000      	movs	r0, #0
 c0009d2:	bd02      	pop	{r1, pc}

0c0009d4 <vPortYield>:
 c0009d4:	2080      	movs	r0, #128	; 0x80
 c0009d6:	0540      	lsls	r0, r0, #21
 c0009d8:	491d      	ldr	r1, [pc, #116]	; (c000a50 <.text_20>)
 c0009da:	6008      	str	r0, [r1, #0]
 c0009dc:	e006      	b.n	c0009ec <.text_10>
	...

0c0009e0 <vPortEnterCritical>:
 c0009e0:	b672      	cpsid	i
 c0009e2:	481a      	ldr	r0, [pc, #104]	; (c000a4c <.text_19>)
 c0009e4:	6801      	ldr	r1, [r0, #0]
 c0009e6:	1c49      	adds	r1, r1, #1
 c0009e8:	6001      	str	r1, [r0, #0]
 c0009ea:	bf00      	nop

0c0009ec <.text_10>:
 c0009ec:	f3bf 8f4f 	dsb	sy
 c0009f0:	f3bf 8f6f 	isb	sy
 c0009f4:	4770      	bx	lr
	...

0c0009f8 <vPortExitCritical>:
 c0009f8:	4814      	ldr	r0, [pc, #80]	; (c000a4c <.text_19>)
 c0009fa:	6801      	ldr	r1, [r0, #0]
 c0009fc:	1e49      	subs	r1, r1, #1
 c0009fe:	6001      	str	r1, [r0, #0]
 c000a00:	2900      	cmp	r1, #0
 c000a02:	d100      	bne.n	c000a06 <vPortExitCritical+0xe>
 c000a04:	b662      	cpsie	i
 c000a06:	4770      	bx	lr

0c000a08 <SysTick_Handler>:
 c000a08:	b510      	push	{r4, lr}
 c000a0a:	f010 fecd 	bl	c0117a8 <ulSetInterruptMaskFromISR>
 c000a0e:	0004      	movs	r4, r0
 c000a10:	f7ff fd1c 	bl	c00044c <xTaskIncrementTick>
 c000a14:	b118      	cbz	r0, c000a1e <SysTick_Handler+0x16>
 c000a16:	2080      	movs	r0, #128	; 0x80
 c000a18:	0540      	lsls	r0, r0, #21
 c000a1a:	490d      	ldr	r1, [pc, #52]	; (c000a50 <.text_20>)
 c000a1c:	6008      	str	r0, [r1, #0]
 c000a1e:	0020      	movs	r0, r4
 c000a20:	f010 fec6 	bl	c0117b0 <vClearInterruptMaskFromISR>
 c000a24:	bd10      	pop	{r4, pc}

0c000a26 <vApplicationIdleHook>:
 c000a26:	f7ff bf9d 	b.w	c000964 <?Veneer 52 (3) for app_taskidle_handler>
	...

0c000a2c <vApplicationStackOverflowHook>:
 c000a2c:	b580      	push	{r7, lr}
 c000a2e:	000a      	movs	r2, r1
 c000a30:	a109      	add	r1, pc, #36	; (adr r1, c000a58 <vApplicationStackOverflowHook::__FUNCTION__>)
 c000a32:	4808      	ldr	r0, [pc, #32]	; (c000a54 <.text_21>)
 c000a34:	f7ff ff8e 	bl	c000954 <?Veneer 15 (3) for DiagPrintf>
 c000a38:	e7fe      	b.n	c000a38 <vApplicationStackOverflowHook+0xc>
	...

0c000a3c <.text_15>:
 c000a3c:	0c000991 	.word	0x0c000991

0c000a40 <.text_16>:
 c000a40:	e000ed20 	.word	0xe000ed20

0c000a44 <.text_17>:
 c000a44:	e000e010 	.word	0xe000e010

0c000a48 <.text_18>:
 c000a48:	00086590 	.word	0x00086590

0c000a4c <.text_19>:
 c000a4c:	00085d04 	.word	0x00085d04

0c000a50 <.text_20>:
 c000a50:	e000ed04 	.word	0xe000ed04

0c000a54 <.text_21>:
 c000a54:	0c00fe48 	.word	0x0c00fe48

0c000a58 <vApplicationStackOverflowHook::__FUNCTION__>:
 c000a58:	70704176 6163696c 6e6f6974 63617453     vApplicationStac
 c000a68:	65764f6b 6f6c6672 6f6f4877 0000006b     kOverflowHook...

0c000a78 <xTimerCreateTimerTask>:
 c000a78:	b51c      	push	{r2, r3, r4, lr}
 c000a7a:	2400      	movs	r4, #0
 c000a7c:	f000 f985 	bl	c000d8a <prvCheckForValidListAndQueue>
 c000a80:	488a      	ldr	r0, [pc, #552]	; (c000cac <.text_16>)
 c000a82:	6881      	ldr	r1, [r0, #8]
 c000a84:	b159      	cbz	r1, c000a9e <xTimerCreateTimerTask+0x26>
 c000a86:	300c      	adds	r0, #12
 c000a88:	9001      	str	r0, [sp, #4]
 c000a8a:	2001      	movs	r0, #1
 c000a8c:	9000      	str	r0, [sp, #0]
 c000a8e:	2300      	movs	r3, #0
 c000a90:	0242      	lsls	r2, r0, #9
 c000a92:	bf00      	nop
 c000a94:	a103      	add	r1, pc, #12	; (adr r1, c000aa4 <.text_4>)
 c000a96:	4886      	ldr	r0, [pc, #536]	; (c000cb0 <.text_17>)
 c000a98:	f7ff fb84 	bl	c0001a4 <xTaskCreate>
 c000a9c:	0004      	movs	r4, r0
 c000a9e:	0020      	movs	r0, r4
 c000aa0:	bd16      	pop	{r1, r2, r4, pc}
	...

0c000aa4 <.text_4>:
 c000aa4:	20726d54 	.word	0x20726d54
 c000aa8:	00637653 	.word	0x00637653

0c000aac <xTimerGenericCommand>:
 c000aac:	b5fb      	push	{r0, r1, r3, r4, r5, r6, r7, lr}
 c000aae:	b084      	sub	sp, #16
 c000ab0:	0004      	movs	r4, r0
 c000ab2:	0015      	movs	r5, r2
 c000ab4:	2600      	movs	r6, #0
 c000ab6:	f7ff fe23 	bl	c000700 <xTaskGetCurrentTaskHandle>
 c000aba:	4f7c      	ldr	r7, [pc, #496]	; (c000cac <.text_16>)
 c000abc:	68f9      	ldr	r1, [r7, #12]
 c000abe:	4288      	cmp	r0, r1
 c000ac0:	d130      	bne.n	c000b24 <xTimerGenericCommand+0x78>
 c000ac2:	9805      	ldr	r0, [sp, #20]
 c000ac4:	2803      	cmp	r0, #3
 c000ac6:	d003      	beq.n	c000ad0 <xTimerGenericCommand+0x24>
 c000ac8:	2804      	cmp	r0, #4
 c000aca:	d001      	beq.n	c000ad0 <xTimerGenericCommand+0x24>
 c000acc:	2805      	cmp	r0, #5
 c000ace:	d129      	bne.n	c000b24 <xTimerGenericCommand+0x78>
 c000ad0:	f7ff fcb3 	bl	c00043a <xTaskGetTickCount>
 c000ad4:	0006      	movs	r6, r0
 c000ad6:	6960      	ldr	r0, [r4, #20]
 c000ad8:	b110      	cbz	r0, c000ae0 <xTimerGenericCommand+0x34>
 c000ada:	1d20      	adds	r0, r4, #4
 c000adc:	f7ff ff27 	bl	c00092e <uxListRemove>
 c000ae0:	9805      	ldr	r0, [sp, #20]
 c000ae2:	2803      	cmp	r0, #3
 c000ae4:	d01a      	beq.n	c000b1c <xTimerGenericCommand+0x70>
 c000ae6:	d31b      	bcc.n	c000b20 <xTimerGenericCommand+0x74>
 c000ae8:	2805      	cmp	r0, #5
 c000aea:	d001      	beq.n	c000af0 <xTimerGenericCommand+0x44>
 c000aec:	d308      	bcc.n	c000b00 <xTimerGenericCommand+0x54>
 c000aee:	e017      	b.n	c000b20 <xTimerGenericCommand+0x74>
 c000af0:	2028      	movs	r0, #40	; 0x28
 c000af2:	5c20      	ldrb	r0, [r4, r0]
 c000af4:	0780      	lsls	r0, r0, #30
 c000af6:	d411      	bmi.n	c000b1c <xTimerGenericCommand+0x70>
 c000af8:	0020      	movs	r0, r4
 c000afa:	f7ff fae2 	bl	c0000c2 <vPortFree>
 c000afe:	e00f      	b.n	c000b20 <xTimerGenericCommand+0x74>
 c000b00:	2028      	movs	r0, #40	; 0x28
 c000b02:	5c20      	ldrb	r0, [r4, r0]
 c000b04:	2101      	movs	r1, #1
 c000b06:	4301      	orrs	r1, r0
 c000b08:	2028      	movs	r0, #40	; 0x28
 c000b0a:	5421      	strb	r1, [r4, r0]
 c000b0c:	61a5      	str	r5, [r4, #24]
 c000b0e:	0033      	movs	r3, r6
 c000b10:	0032      	movs	r2, r6
 c000b12:	1971      	adds	r1, r6, r5
 c000b14:	0020      	movs	r0, r4
 c000b16:	f000 f8ae 	bl	c000c76 <prvInsertTimerInActiveList>
 c000b1a:	e001      	b.n	c000b20 <xTimerGenericCommand+0x74>
 c000b1c:	f000 f92e 	bl	c000d7c <.text_20>
 c000b20:	2001      	movs	r0, #1
 c000b22:	e01d      	b.n	c000b60 <xTimerGenericCommand+0xb4>
 c000b24:	68b8      	ldr	r0, [r7, #8]
 c000b26:	b1d0      	cbz	r0, c000b5e <xTimerGenericCommand+0xb2>
 c000b28:	9905      	ldr	r1, [sp, #20]
 c000b2a:	9100      	str	r1, [sp, #0]
 c000b2c:	9501      	str	r5, [sp, #4]
 c000b2e:	9402      	str	r4, [sp, #8]
 c000b30:	9905      	ldr	r1, [sp, #20]
 c000b32:	2905      	cmp	r1, #5
 c000b34:	dc0d      	bgt.n	c000b52 <xTimerGenericCommand+0xa6>
 c000b36:	f7ff fde6 	bl	c000706 <xTaskGetSchedulerState>
 c000b3a:	2802      	cmp	r0, #2
 c000b3c:	d102      	bne.n	c000b44 <xTimerGenericCommand+0x98>
 c000b3e:	9a0c      	ldr	r2, [sp, #48]	; 0x30
 c000b40:	2300      	movs	r3, #0
 c000b42:	e001      	b.n	c000b48 <xTimerGenericCommand+0x9c>
 c000b44:	2300      	movs	r3, #0
 c000b46:	2200      	movs	r2, #0
 c000b48:	4669      	mov	r1, sp
 c000b4a:	68b8      	ldr	r0, [r7, #8]
 c000b4c:	f000 fb1d 	bl	c00118a <xQueueGenericSend>
 c000b50:	e004      	b.n	c000b5c <xTimerGenericCommand+0xb0>
 c000b52:	9a06      	ldr	r2, [sp, #24]
 c000b54:	2300      	movs	r3, #0
 c000b56:	4669      	mov	r1, sp
 c000b58:	f000 fb77 	bl	c00124a <xQueueGenericSendFromISR>
 c000b5c:	0006      	movs	r6, r0
 c000b5e:	0030      	movs	r0, r6
 c000b60:	b007      	add	sp, #28
 c000b62:	bdf0      	pop	{r4, r5, r6, r7, pc}

0c000b64 <prvTimerTask>:
 c000b64:	b5fe      	push	{r1, r2, r3, r4, r5, r6, r7, lr}
 c000b66:	4f51      	ldr	r7, [pc, #324]	; (c000cac <.text_16>)
 c000b68:	e013      	b.n	c000b92 <prvTimerTask+0x2e>
 c000b6a:	f7ff fc2e 	bl	c0003ca <xTaskResumeAll>
 c000b6e:	e00e      	b.n	c000b8e <prvTimerTask+0x2a>
 c000b70:	6878      	ldr	r0, [r7, #4]
 c000b72:	6800      	ldr	r0, [r0, #0]
 c000b74:	1e45      	subs	r5, r0, #1
 c000b76:	41ad      	sbcs	r5, r5
 c000b78:	0fed      	lsrs	r5, r5, #31
 c000b7a:	002a      	movs	r2, r5
 c000b7c:	1ba1      	subs	r1, r4, r6
 c000b7e:	68b8      	ldr	r0, [r7, #8]
 c000b80:	f000 fd3b 	bl	c0015fa <vQueueWaitForMessageRestricted>
 c000b84:	f7ff fc21 	bl	c0003ca <xTaskResumeAll>
 c000b88:	b908      	cbnz	r0, c000b8e <prvTimerTask+0x2a>
 c000b8a:	f7ff ff23 	bl	c0009d4 <vPortYield>
 c000b8e:	f000 f891 	bl	c000cb4 <prvProcessReceivedCommands>
 c000b92:	6838      	ldr	r0, [r7, #0]
 c000b94:	6801      	ldr	r1, [r0, #0]
 c000b96:	b911      	cbnz	r1, c000b9e <prvTimerTask+0x3a>
 c000b98:	2501      	movs	r5, #1
 c000b9a:	2400      	movs	r4, #0
 c000b9c:	e002      	b.n	c000ba4 <prvTimerTask+0x40>
 c000b9e:	2500      	movs	r5, #0
 c000ba0:	68c0      	ldr	r0, [r0, #12]
 c000ba2:	6804      	ldr	r4, [r0, #0]
 c000ba4:	f7ff fbfa 	bl	c00039c <vTaskSuspendAll>
 c000ba8:	a801      	add	r0, sp, #4
 c000baa:	f000 f82d 	bl	c000c08 <prvSampleTimeNow>
 c000bae:	0006      	movs	r6, r0
 c000bb0:	9801      	ldr	r0, [sp, #4]
 c000bb2:	2800      	cmp	r0, #0
 c000bb4:	d1d9      	bne.n	c000b6a <prvTimerTask+0x6>
 c000bb6:	2d00      	cmp	r5, #0
 c000bb8:	d1da      	bne.n	c000b70 <prvTimerTask+0xc>
 c000bba:	42a6      	cmp	r6, r4
 c000bbc:	d3dd      	bcc.n	c000b7a <prvTimerTask+0x16>
 c000bbe:	f7ff fc04 	bl	c0003ca <xTaskResumeAll>
 c000bc2:	6838      	ldr	r0, [r7, #0]
 c000bc4:	68c0      	ldr	r0, [r0, #12]
 c000bc6:	68c5      	ldr	r5, [r0, #12]
 c000bc8:	1d28      	adds	r0, r5, #4
 c000bca:	f7ff feb0 	bl	c00092e <uxListRemove>
 c000bce:	2028      	movs	r0, #40	; 0x28
 c000bd0:	5c28      	ldrb	r0, [r5, r0]
 c000bd2:	0741      	lsls	r1, r0, #29
 c000bd4:	d510      	bpl.n	c000bf8 <prvTimerTask+0x94>
 c000bd6:	0023      	movs	r3, r4
 c000bd8:	0032      	movs	r2, r6
 c000bda:	69a8      	ldr	r0, [r5, #24]
 c000bdc:	1821      	adds	r1, r4, r0
 c000bde:	0028      	movs	r0, r5
 c000be0:	f000 f849 	bl	c000c76 <prvInsertTimerInActiveList>
 c000be4:	b160      	cbz	r0, c000c00 <prvTimerTask+0x9c>
 c000be6:	2000      	movs	r0, #0
 c000be8:	9000      	str	r0, [sp, #0]
 c000bea:	2300      	movs	r3, #0
 c000bec:	0022      	movs	r2, r4
 c000bee:	2100      	movs	r1, #0
 c000bf0:	0028      	movs	r0, r5
 c000bf2:	f7ff ff5b 	bl	c000aac <xTimerGenericCommand>
 c000bf6:	e003      	b.n	c000c00 <prvTimerTask+0x9c>
 c000bf8:	21fe      	movs	r1, #254	; 0xfe
 c000bfa:	4001      	ands	r1, r0
 c000bfc:	2028      	movs	r0, #40	; 0x28
 c000bfe:	5429      	strb	r1, [r5, r0]
 c000c00:	0028      	movs	r0, r5
 c000c02:	6a29      	ldr	r1, [r5, #32]
 c000c04:	4788      	blx	r1
 c000c06:	e7c2      	b.n	c000b8e <prvTimerTask+0x2a>

0c000c08 <prvSampleTimeNow>:
 c000c08:	b5f1      	push	{r0, r4, r5, r6, r7, lr}
 c000c0a:	b082      	sub	sp, #8
 c000c0c:	f7ff fc15 	bl	c00043a <xTaskGetTickCount>
 c000c10:	0007      	movs	r7, r0
 c000c12:	4e26      	ldr	r6, [pc, #152]	; (c000cac <.text_16>)
 c000c14:	6930      	ldr	r0, [r6, #16]
 c000c16:	4287      	cmp	r7, r0
 c000c18:	d30b      	bcc.n	c000c32 <prvSampleTimeNow+0x2a>
 c000c1a:	2000      	movs	r0, #0
 c000c1c:	9902      	ldr	r1, [sp, #8]
 c000c1e:	6008      	str	r0, [r1, #0]
 c000c20:	6137      	str	r7, [r6, #16]
 c000c22:	0038      	movs	r0, r7
 c000c24:	bdfe      	pop	{r1, r2, r3, r4, r5, r6, r7, pc}
 c000c26:	6060      	str	r0, [r4, #4]
 c000c28:	6124      	str	r4, [r4, #16]
 c000c2a:	1d21      	adds	r1, r4, #4
 c000c2c:	6830      	ldr	r0, [r6, #0]
 c000c2e:	f7ff fe63 	bl	c0008f8 <vListInsert>
 c000c32:	6830      	ldr	r0, [r6, #0]
 c000c34:	6801      	ldr	r1, [r0, #0]
 c000c36:	b1c9      	cbz	r1, c000c6c <prvSampleTimeNow+0x64>
 c000c38:	68c0      	ldr	r0, [r0, #12]
 c000c3a:	6805      	ldr	r5, [r0, #0]
 c000c3c:	68c4      	ldr	r4, [r0, #12]
 c000c3e:	1d20      	adds	r0, r4, #4
 c000c40:	f7ff fe75 	bl	c00092e <uxListRemove>
 c000c44:	0020      	movs	r0, r4
 c000c46:	6a21      	ldr	r1, [r4, #32]
 c000c48:	4788      	blx	r1
 c000c4a:	2028      	movs	r0, #40	; 0x28
 c000c4c:	5c20      	ldrb	r0, [r4, r0]
 c000c4e:	0740      	lsls	r0, r0, #29
 c000c50:	d5ef      	bpl.n	c000c32 <prvSampleTimeNow+0x2a>
 c000c52:	69a0      	ldr	r0, [r4, #24]
 c000c54:	1828      	adds	r0, r5, r0
 c000c56:	4285      	cmp	r5, r0
 c000c58:	d3e5      	bcc.n	c000c26 <prvSampleTimeNow+0x1e>
 c000c5a:	2000      	movs	r0, #0
 c000c5c:	9000      	str	r0, [sp, #0]
 c000c5e:	2300      	movs	r3, #0
 c000c60:	002a      	movs	r2, r5
 c000c62:	2100      	movs	r1, #0
 c000c64:	0020      	movs	r0, r4
 c000c66:	f7ff ff21 	bl	c000aac <xTimerGenericCommand>
 c000c6a:	e7e2      	b.n	c000c32 <prvSampleTimeNow+0x2a>
 c000c6c:	6871      	ldr	r1, [r6, #4]
 c000c6e:	6031      	str	r1, [r6, #0]
 c000c70:	6070      	str	r0, [r6, #4]
 c000c72:	2001      	movs	r0, #1
 c000c74:	e7d2      	b.n	c000c1c <prvSampleTimeNow+0x14>

0c000c76 <prvInsertTimerInActiveList>:
 c000c76:	b538      	push	{r3, r4, r5, lr}
 c000c78:	2400      	movs	r4, #0
 c000c7a:	6041      	str	r1, [r0, #4]
 c000c7c:	6100      	str	r0, [r0, #16]
 c000c7e:	4d0b      	ldr	r5, [pc, #44]	; (c000cac <.text_16>)
 c000c80:	428a      	cmp	r2, r1
 c000c82:	d306      	bcc.n	c000c92 <prvInsertTimerInActiveList+0x1c>
 c000c84:	1ad1      	subs	r1, r2, r3
 c000c86:	6982      	ldr	r2, [r0, #24]
 c000c88:	4291      	cmp	r1, r2
 c000c8a:	d206      	bcs.n	c000c9a <prvInsertTimerInActiveList+0x24>
 c000c8c:	1d01      	adds	r1, r0, #4
 c000c8e:	6868      	ldr	r0, [r5, #4]
 c000c90:	e007      	b.n	c000ca2 <prvInsertTimerInActiveList+0x2c>
 c000c92:	429a      	cmp	r2, r3
 c000c94:	d203      	bcs.n	c000c9e <prvInsertTimerInActiveList+0x28>
 c000c96:	4299      	cmp	r1, r3
 c000c98:	d301      	bcc.n	c000c9e <prvInsertTimerInActiveList+0x28>
 c000c9a:	2401      	movs	r4, #1
 c000c9c:	e003      	b.n	c000ca6 <prvInsertTimerInActiveList+0x30>
 c000c9e:	1d01      	adds	r1, r0, #4
 c000ca0:	6828      	ldr	r0, [r5, #0]
 c000ca2:	f7ff fe29 	bl	c0008f8 <vListInsert>
 c000ca6:	0020      	movs	r0, r4
 c000ca8:	bd32      	pop	{r1, r4, r5, pc}
	...

0c000cac <.text_16>:
 c000cac:	0008bc9c 	.word	0x0008bc9c

0c000cb0 <.text_17>:
 c000cb0:	0c000b65 	.word	0x0c000b65

0c000cb4 <prvProcessReceivedCommands>:
 c000cb4:	b570      	push	{r4, r5, r6, lr}
 c000cb6:	b086      	sub	sp, #24
 c000cb8:	2501      	movs	r5, #1
 c000cba:	4e42      	ldr	r6, [pc, #264]	; (c000dc4 <.text_30>)
 c000cbc:	e008      	b.n	c000cd0 <prvProcessReceivedCommands+0x1c>
 c000cbe:	f000 f857 	bl	c000d70 <.text_19>
 c000cc2:	9803      	ldr	r0, [sp, #12]
 c000cc4:	61a0      	str	r0, [r4, #24]
 c000cc6:	0013      	movs	r3, r2
 c000cc8:	1811      	adds	r1, r2, r0
 c000cca:	0020      	movs	r0, r4
 c000ccc:	f7ff ffd3 	bl	c000c76 <prvInsertTimerInActiveList>
 c000cd0:	2200      	movs	r2, #0
 c000cd2:	a902      	add	r1, sp, #8
 c000cd4:	68b0      	ldr	r0, [r6, #8]
 c000cd6:	f000 fb19 	bl	c00130c <xQueueReceive>
 c000cda:	2800      	cmp	r0, #0
 c000cdc:	d046      	beq.n	c000d6c <prvProcessReceivedCommands+0xb8>
 c000cde:	9802      	ldr	r0, [sp, #8]
 c000ce0:	2800      	cmp	r0, #0
 c000ce2:	d503      	bpl.n	c000cec <prvProcessReceivedCommands+0x38>
 c000ce4:	9905      	ldr	r1, [sp, #20]
 c000ce6:	9804      	ldr	r0, [sp, #16]
 c000ce8:	9a03      	ldr	r2, [sp, #12]
 c000cea:	4790      	blx	r2
 c000cec:	9802      	ldr	r0, [sp, #8]
 c000cee:	2800      	cmp	r0, #0
 c000cf0:	d4ee      	bmi.n	c000cd0 <prvProcessReceivedCommands+0x1c>
 c000cf2:	9c04      	ldr	r4, [sp, #16]
 c000cf4:	6960      	ldr	r0, [r4, #20]
 c000cf6:	b110      	cbz	r0, c000cfe <prvProcessReceivedCommands+0x4a>
 c000cf8:	1d20      	adds	r0, r4, #4
 c000cfa:	f7ff fe18 	bl	c00092e <uxListRemove>
 c000cfe:	a801      	add	r0, sp, #4
 c000d00:	f7ff ff82 	bl	c000c08 <prvSampleTimeNow>
 c000d04:	0002      	movs	r2, r0
 c000d06:	9802      	ldr	r0, [sp, #8]
 c000d08:	2809      	cmp	r0, #9
 c000d0a:	d8e1      	bhi.n	c000cd0 <prvProcessReceivedCommands+0x1c>
 c000d0c:	a101      	add	r1, pc, #4	; (adr r1, c000d14 <prvProcessReceivedCommands+0x60>)
 c000d0e:	5609      	ldrsb	r1, [r1, r0]
 c000d10:	448f      	add	pc, r1
 c000d12:	bf00      	nop
 c000d14:	520a0a0a 	.word	0x520a0a0a
 c000d18:	0a0a42aa 	.word	0x0a0a42aa
 c000d1c:	aa52      	.short	0xaa52
 c000d1e:	f000 f827 	bl	c000d70 <.text_19>
 c000d22:	9b03      	ldr	r3, [sp, #12]
 c000d24:	69a0      	ldr	r0, [r4, #24]
 c000d26:	1819      	adds	r1, r3, r0
 c000d28:	0020      	movs	r0, r4
 c000d2a:	f7ff ffa4 	bl	c000c76 <prvInsertTimerInActiveList>
 c000d2e:	2800      	cmp	r0, #0
 c000d30:	d0ce      	beq.n	c000cd0 <prvProcessReceivedCommands+0x1c>
 c000d32:	0020      	movs	r0, r4
 c000d34:	6a21      	ldr	r1, [r4, #32]
 c000d36:	4788      	blx	r1
 c000d38:	2028      	movs	r0, #40	; 0x28
 c000d3a:	5c20      	ldrb	r0, [r4, r0]
 c000d3c:	0740      	lsls	r0, r0, #29
 c000d3e:	d5c7      	bpl.n	c000cd0 <prvProcessReceivedCommands+0x1c>
 c000d40:	2000      	movs	r0, #0
 c000d42:	9000      	str	r0, [sp, #0]
 c000d44:	2300      	movs	r3, #0
 c000d46:	9803      	ldr	r0, [sp, #12]
 c000d48:	69a1      	ldr	r1, [r4, #24]
 c000d4a:	1842      	adds	r2, r0, r1
 c000d4c:	2100      	movs	r1, #0
 c000d4e:	0020      	movs	r0, r4
 c000d50:	f7ff feac 	bl	c000aac <xTimerGenericCommand>
 c000d54:	e7bc      	b.n	c000cd0 <prvProcessReceivedCommands+0x1c>
 c000d56:	2028      	movs	r0, #40	; 0x28
 c000d58:	5c20      	ldrb	r0, [r4, r0]
 c000d5a:	0780      	lsls	r0, r0, #30
 c000d5c:	d403      	bmi.n	c000d66 <prvProcessReceivedCommands+0xb2>
 c000d5e:	0020      	movs	r0, r4
 c000d60:	f7ff f9af 	bl	c0000c2 <vPortFree>
 c000d64:	e7b4      	b.n	c000cd0 <prvProcessReceivedCommands+0x1c>
 c000d66:	f000 f809 	bl	c000d7c <.text_20>
 c000d6a:	e7b1      	b.n	c000cd0 <prvProcessReceivedCommands+0x1c>
 c000d6c:	b006      	add	sp, #24
 c000d6e:	bd70      	pop	{r4, r5, r6, pc}

0c000d70 <.text_19>:
 c000d70:	2028      	movs	r0, #40	; 0x28
 c000d72:	5c20      	ldrb	r0, [r4, r0]
 c000d74:	4328      	orrs	r0, r5
 c000d76:	2128      	movs	r1, #40	; 0x28
 c000d78:	5460      	strb	r0, [r4, r1]
 c000d7a:	4770      	bx	lr

0c000d7c <.text_20>:
 c000d7c:	2028      	movs	r0, #40	; 0x28
 c000d7e:	5c20      	ldrb	r0, [r4, r0]
 c000d80:	21fe      	movs	r1, #254	; 0xfe
 c000d82:	4001      	ands	r1, r0
 c000d84:	2028      	movs	r0, #40	; 0x28
 c000d86:	5421      	strb	r1, [r4, r0]
 c000d88:	4770      	bx	lr

0c000d8a <prvCheckForValidListAndQueue>:
 c000d8a:	b510      	push	{r4, lr}
 c000d8c:	f7ff fe28 	bl	c0009e0 <vPortEnterCritical>
 c000d90:	4c0c      	ldr	r4, [pc, #48]	; (c000dc4 <.text_30>)
 c000d92:	68a0      	ldr	r0, [r4, #8]
 c000d94:	b998      	cbnz	r0, c000dbe <prvCheckForValidListAndQueue+0x34>
 c000d96:	0020      	movs	r0, r4
 c000d98:	3014      	adds	r0, #20
 c000d9a:	f7ff fd8f 	bl	c0008bc <vListInitialise>
 c000d9e:	0020      	movs	r0, r4
 c000da0:	3028      	adds	r0, #40	; 0x28
 c000da2:	f7ff fd8b 	bl	c0008bc <vListInitialise>
 c000da6:	0020      	movs	r0, r4
 c000da8:	3014      	adds	r0, #20
 c000daa:	6020      	str	r0, [r4, #0]
 c000dac:	0020      	movs	r0, r4
 c000dae:	3028      	adds	r0, #40	; 0x28
 c000db0:	6060      	str	r0, [r4, #4]
 c000db2:	2200      	movs	r2, #0
 c000db4:	2110      	movs	r1, #16
 c000db6:	200a      	movs	r0, #10
 c000db8:	f000 f9bf 	bl	c00113a <xQueueGenericCreate>
 c000dbc:	60a0      	str	r0, [r4, #8]
 c000dbe:	f7ff fe1b 	bl	c0009f8 <vPortExitCritical>
 c000dc2:	bd10      	pop	{r4, pc}

0c000dc4 <.text_30>:
 c000dc4:	0008bc9c 	.word	0x0008bc9c

0c000dc8 <?Veneer 22 (3) for SOCPS_AONTimerCmd>:
 c000dc8:	b408      	push	{r3}
 c000dca:	4b02      	ldr	r3, [pc, #8]	; (c000dd4 <?Veneer 22 (3) for SOCPS_AONTimerCmd+0xc>)
 c000dcc:	469c      	mov	ip, r3
 c000dce:	bc08      	pop	{r3}
 c000dd0:	4760      	bx	ip
 c000dd2:	46c0      	nop			; (mov r8, r8)
 c000dd4:	00085549 	.word	0x00085549

0c000dd8 <?Veneer 30 (3) for BKUP_Read>:
 c000dd8:	b408      	push	{r3}
 c000dda:	4b02      	ldr	r3, [pc, #8]	; (c000de4 <?Veneer 30 (3) for BKUP_Read+0xc>)
 c000ddc:	469c      	mov	ip, r3
 c000dde:	bc08      	pop	{r3}
 c000de0:	4760      	bx	ip
 c000de2:	46c0      	nop			; (mov r8, r8)
 c000de4:	00001435 	.word	0x00001435

0c000de8 <?Veneer 43 (3) for SOCPS_AONTimer>:
 c000de8:	b408      	push	{r3}
 c000dea:	4b02      	ldr	r3, [pc, #8]	; (c000df4 <?Veneer 43 (3) for SOCPS_AONTimer+0xc>)
 c000dec:	469c      	mov	ip, r3
 c000dee:	bc08      	pop	{r3}
 c000df0:	4760      	bx	ip
 c000df2:	46c0      	nop			; (mov r8, r8)
 c000df4:	0008551f 	.word	0x0008551f

0c000df8 <?Veneer 54 (3) for SOCPS_SetWakeEventAON>:
 c000df8:	b408      	push	{r3}
 c000dfa:	4b02      	ldr	r3, [pc, #8]	; (c000e04 <?Veneer 54 (3) for SOCPS_SetWakeEventAON+0xc>)
 c000dfc:	469c      	mov	ip, r3
 c000dfe:	bc08      	pop	{r3}
 c000e00:	4760      	bx	ip
 c000e02:	46c0      	nop			; (mov r8, r8)
 c000e04:	0008595d 	.word	0x0008595d

0c000e08 <?Veneer 55 (3) for SYSTIMER_TickGet>:
 c000e08:	b408      	push	{r3}
 c000e0a:	4b02      	ldr	r3, [pc, #8]	; (c000e14 <?Veneer 55 (3) for SYSTIMER_TickGet+0xc>)
 c000e0c:	469c      	mov	ip, r3
 c000e0e:	bc08      	pop	{r3}
 c000e10:	4760      	bx	ip
 c000e12:	46c0      	nop			; (mov r8, r8)
 c000e14:	00003885 	.word	0x00003885

0c000e18 <?Veneer 56 (3) for SOCPS_SWRLDO_Suspend>:
 c000e18:	b408      	push	{r3}
 c000e1a:	4b02      	ldr	r3, [pc, #8]	; (c000e24 <?Veneer 56 (3) for SOCPS_SWRLDO_Suspend+0xc>)
 c000e1c:	469c      	mov	ip, r3
 c000e1e:	bc08      	pop	{r3}
 c000e20:	4760      	bx	ip
 c000e22:	46c0      	nop			; (mov r8, r8)
 c000e24:	000859f5 	.word	0x000859f5

0c000e28 <?Veneer 57 (3) for SOCPS_SleepCG>:
 c000e28:	b408      	push	{r3}
 c000e2a:	4b02      	ldr	r3, [pc, #8]	; (c000e34 <?Veneer 57 (3) for SOCPS_SleepCG+0xc>)
 c000e2c:	469c      	mov	ip, r3
 c000e2e:	bc08      	pop	{r3}
 c000e30:	4760      	bx	ip
 c000e32:	46c0      	nop			; (mov r8, r8)
 c000e34:	000857a9 	.word	0x000857a9

0c000e38 <pmu_exec_sleep_hook_funs>:
 c000e38:	b510      	push	{r4, lr}
 c000e3a:	2400      	movs	r4, #0
 c000e3c:	488e      	ldr	r0, [pc, #568]	; (c001078 <.text_27>)
 c000e3e:	2114      	movs	r1, #20
 c000e40:	4361      	muls	r1, r4
 c000e42:	1842      	adds	r2, r0, r1
 c000e44:	6850      	ldr	r0, [r2, #4]
 c000e46:	b120      	cbz	r0, c000e52 <pmu_exec_sleep_hook_funs+0x1a>
 c000e48:	6891      	ldr	r1, [r2, #8]
 c000e4a:	2000      	movs	r0, #0
 c000e4c:	6852      	ldr	r2, [r2, #4]
 c000e4e:	4790      	blx	r2
 c000e50:	b110      	cbz	r0, c000e58 <pmu_exec_sleep_hook_funs+0x20>
 c000e52:	1c64      	adds	r4, r4, #1
 c000e54:	2c1f      	cmp	r4, #31
 c000e56:	d3f1      	bcc.n	c000e3c <pmu_exec_sleep_hook_funs+0x4>
 c000e58:	0020      	movs	r0, r4
 c000e5a:	bd10      	pop	{r4, pc}

0c000e5c <pmu_exec_wakeup_hook_funs>:
 c000e5c:	b538      	push	{r3, r4, r5, lr}
 c000e5e:	0004      	movs	r4, r0
 c000e60:	2500      	movs	r5, #0
 c000e62:	e00a      	b.n	c000e7a <pmu_exec_wakeup_hook_funs+0x1e>
 c000e64:	4884      	ldr	r0, [pc, #528]	; (c001078 <.text_27>)
 c000e66:	2114      	movs	r1, #20
 c000e68:	4369      	muls	r1, r5
 c000e6a:	1842      	adds	r2, r0, r1
 c000e6c:	68d0      	ldr	r0, [r2, #12]
 c000e6e:	b118      	cbz	r0, c000e78 <pmu_exec_wakeup_hook_funs+0x1c>
 c000e70:	6911      	ldr	r1, [r2, #16]
 c000e72:	2000      	movs	r0, #0
 c000e74:	68d2      	ldr	r2, [r2, #12]
 c000e76:	4790      	blx	r2
 c000e78:	1c6d      	adds	r5, r5, #1
 c000e7a:	42a5      	cmp	r5, r4
 c000e7c:	d3f2      	bcc.n	c000e64 <pmu_exec_wakeup_hook_funs+0x8>
 c000e7e:	bd31      	pop	{r0, r4, r5, pc}

0c000e80 <pmu_set_sysactive_time>:
 c000e80:	b538      	push	{r3, r4, r5, lr}
 c000e82:	0005      	movs	r5, r0
 c000e84:	4c82      	ldr	r4, [pc, #520]	; (c001090 <.text_32>)
 c000e86:	6920      	ldr	r0, [r4, #16]
 c000e88:	6961      	ldr	r1, [r4, #20]
 c000e8a:	b131      	cbz	r1, c000e9a <pmu_set_sysactive_time+0x1a>
 c000e8c:	6920      	ldr	r0, [r4, #16]
 c000e8e:	4285      	cmp	r5, r0
 c000e90:	d200      	bcs.n	c000e94 <pmu_set_sysactive_time+0x14>
 c000e92:	0005      	movs	r5, r0
 c000e94:	6125      	str	r5, [r4, #16]
 c000e96:	2001      	movs	r0, #1
 c000e98:	bd32      	pop	{r1, r4, r5, pc}
 c000e9a:	4285      	cmp	r5, r0
 c000e9c:	d200      	bcs.n	c000ea0 <pmu_set_sysactive_time+0x20>
 c000e9e:	0005      	movs	r5, r0
 c000ea0:	2000      	movs	r0, #0
 c000ea2:	6120      	str	r0, [r4, #16]
 c000ea4:	f7ff fac9 	bl	c00043a <xTaskGetTickCount>
 c000ea8:	1940      	adds	r0, r0, r5
 c000eaa:	68a1      	ldr	r1, [r4, #8]
 c000eac:	4288      	cmp	r0, r1
 c000eae:	d200      	bcs.n	c000eb2 <pmu_set_sysactive_time+0x32>
 c000eb0:	0008      	movs	r0, r1
 c000eb2:	60a0      	str	r0, [r4, #8]
 c000eb4:	2000      	movs	r0, #0
 c000eb6:	bd32      	pop	{r1, r4, r5, pc}

0c000eb8 <freertos_ready_to_sleep>:
 c000eb8:	b580      	push	{r7, lr}
 c000eba:	f7ff fabe 	bl	c00043a <xTaskGetTickCount>
 c000ebe:	4974      	ldr	r1, [pc, #464]	; (c001090 <.text_32>)
 c000ec0:	688a      	ldr	r2, [r1, #8]
 c000ec2:	4290      	cmp	r0, r2
 c000ec4:	d315      	bcc.n	c000ef2 <freertos_ready_to_sleep+0x3a>
 c000ec6:	6849      	ldr	r1, [r1, #4]
 c000ec8:	b999      	cbnz	r1, c000ef2 <freertos_ready_to_sleep+0x3a>
 c000eca:	4973      	ldr	r1, [pc, #460]	; (c001098 <.text_34>)
 c000ecc:	6809      	ldr	r1, [r1, #0]
 c000ece:	4288      	cmp	r0, r1
 c000ed0:	d20f      	bcs.n	c000ef2 <freertos_ready_to_sleep+0x3a>
 c000ed2:	2200      	movs	r2, #0
 c000ed4:	43d2      	mvns	r2, r2
 c000ed6:	4291      	cmp	r1, r2
 c000ed8:	d009      	beq.n	c000eee <freertos_ready_to_sleep+0x36>
 c000eda:	1a08      	subs	r0, r1, r0
 c000edc:	f7ff ff84 	bl	c000de8 <?Veneer 43 (3) for SOCPS_AONTimer>
 c000ee0:	2101      	movs	r1, #1
 c000ee2:	2002      	movs	r0, #2
 c000ee4:	f7ff ff88 	bl	c000df8 <?Veneer 54 (3) for SOCPS_SetWakeEventAON>
 c000ee8:	2001      	movs	r0, #1
 c000eea:	f7ff ff6d 	bl	c000dc8 <?Veneer 22 (3) for SOCPS_AONTimerCmd>
 c000eee:	2001      	movs	r0, #1
 c000ef0:	bd02      	pop	{r1, pc}
 c000ef2:	2000      	movs	r0, #0
 c000ef4:	bd02      	pop	{r1, pc}

0c000ef6 <freertos_ready_to_dsleep>:
 c000ef6:	b580      	push	{r7, lr}
 c000ef8:	f7ff fa9f 	bl	c00043a <xTaskGetTickCount>
 c000efc:	4967      	ldr	r1, [pc, #412]	; (c00109c <.text_35>)
 c000efe:	684a      	ldr	r2, [r1, #4]
 c000f00:	4290      	cmp	r0, r2
 c000f02:	d201      	bcs.n	c000f08 <freertos_ready_to_dsleep+0x12>
 c000f04:	2000      	movs	r0, #0
 c000f06:	bd02      	pop	{r1, pc}
 c000f08:	6808      	ldr	r0, [r1, #0]
 c000f0a:	1e40      	subs	r0, r0, #1
 c000f0c:	4180      	sbcs	r0, r0
 c000f0e:	0fc0      	lsrs	r0, r0, #31
 c000f10:	bd02      	pop	{r1, pc}
	...

0c000f14 <freertos_pre_sleep_processing>:
 c000f14:	b5f8      	push	{r3, r4, r5, r6, r7, lr}
 c000f16:	2500      	movs	r5, #0
 c000f18:	9500      	str	r5, [sp, #0]
 c000f1a:	4961      	ldr	r1, [pc, #388]	; (c0010a0 <.text_36>)
 c000f1c:	680f      	ldr	r7, [r1, #0]
 c000f1e:	6005      	str	r5, [r0, #0]
 c000f20:	f7ff ff72 	bl	c000e08 <?Veneer 55 (3) for SYSTIMER_TickGet>
 c000f24:	0006      	movs	r6, r0
 c000f26:	4c5a      	ldr	r4, [pc, #360]	; (c001090 <.text_32>)
 c000f28:	2001      	movs	r0, #1
 c000f2a:	6160      	str	r0, [r4, #20]
 c000f2c:	f7ff ff74 	bl	c000e18 <?Veneer 56 (3) for SOCPS_SWRLDO_Suspend>
 c000f30:	f000 fdb2 	bl	c001a98 <SOCPS_SleepInit>
 c000f34:	2000      	movs	r0, #0
 c000f36:	f7ff ff4f 	bl	c000dd8 <?Veneer 30 (3) for BKUP_Read>
 c000f3a:	0500      	lsls	r0, r0, #20
 c000f3c:	d409      	bmi.n	c000f52 <freertos_pre_sleep_processing+0x3e>
 c000f3e:	2066      	movs	r0, #102	; 0x66
 c000f40:	f7ff ff52 	bl	c000de8 <?Veneer 43 (3) for SOCPS_AONTimer>
 c000f44:	2101      	movs	r1, #1
 c000f46:	2002      	movs	r0, #2
 c000f48:	f7ff ff56 	bl	c000df8 <?Veneer 54 (3) for SOCPS_SetWakeEventAON>
 c000f4c:	2001      	movs	r0, #1
 c000f4e:	f7ff ff3b 	bl	c000dc8 <?Veneer 22 (3) for SOCPS_AONTimerCmd>
 c000f52:	68e0      	ldr	r0, [r4, #12]
 c000f54:	b910      	cbnz	r0, c000f5c <freertos_pre_sleep_processing+0x48>
 c000f56:	f000 fcb3 	bl	c0018c0 <SOCPS_SleepPG>
 c000f5a:	e001      	b.n	c000f60 <freertos_pre_sleep_processing+0x4c>
 c000f5c:	f7ff ff64 	bl	c000e28 <?Veneer 57 (3) for SOCPS_SleepCG>
 c000f60:	f7ff ff52 	bl	c000e08 <?Veneer 55 (3) for SYSTIMER_TickGet>
 c000f64:	4286      	cmp	r6, r0
 c000f66:	d201      	bcs.n	c000f6c <freertos_pre_sleep_processing+0x58>
 c000f68:	1b80      	subs	r0, r0, r6
 c000f6a:	e003      	b.n	c000f74 <freertos_pre_sleep_processing+0x60>
 c000f6c:	2100      	movs	r1, #0
 c000f6e:	43c9      	mvns	r1, r1
 c000f70:	1b89      	subs	r1, r1, r6
 c000f72:	1808      	adds	r0, r1, r0
 c000f74:	6821      	ldr	r1, [r4, #0]
 c000f76:	1840      	adds	r0, r0, r1
 c000f78:	06c1      	lsls	r1, r0, #27
 c000f7a:	0ec9      	lsrs	r1, r1, #27
 c000f7c:	6021      	str	r1, [r4, #0]
 c000f7e:	f240 31e8 	movw	r1, #1000	; 0x3e8
 c000f82:	0bc2      	lsrs	r2, r0, #15
 c000f84:	434a      	muls	r2, r1
 c000f86:	0440      	lsls	r0, r0, #17
 c000f88:	0c40      	lsrs	r0, r0, #17
 c000f8a:	4348      	muls	r0, r1
 c000f8c:	0bc0      	lsrs	r0, r0, #15
 c000f8e:	1810      	adds	r0, r2, r0
 c000f90:	9000      	str	r0, [sp, #0]
 c000f92:	9800      	ldr	r0, [sp, #0]
 c000f94:	f7ff fa55 	bl	c000442 <vTaskStepTick>
 c000f98:	4841      	ldr	r0, [pc, #260]	; (c0010a0 <.text_36>)
 c000f9a:	6802      	ldr	r2, [r0, #0]
 c000f9c:	4841      	ldr	r0, [pc, #260]	; (c0010a4 <.text_37>)
 c000f9e:	6880      	ldr	r0, [r0, #8]
 c000fa0:	b158      	cbz	r0, c000fba <freertos_pre_sleep_processing+0xa6>
 c000fa2:	4841      	ldr	r0, [pc, #260]	; (c0010a8 <.text_38>)
 c000fa4:	6800      	ldr	r0, [r0, #0]
 c000fa6:	0380      	lsls	r0, r0, #14
 c000fa8:	d507      	bpl.n	c000fba <freertos_pre_sleep_processing+0xa6>
 c000faa:	4940      	ldr	r1, [pc, #256]	; (c0010ac <.text_39>)
 c000fac:	1bd3      	subs	r3, r2, r7
 c000fae:	400a      	ands	r2, r1
 c000fb0:	4039      	ands	r1, r7
 c000fb2:	bf00      	nop
 c000fb4:	a041      	add	r0, pc, #260	; (adr r0, c0010bc <.text_46>)
 c000fb6:	f7ff fccd 	bl	c000954 <?Veneer 15 (3) for DiagPrintf>
 c000fba:	6165      	str	r5, [r4, #20]
 c000fbc:	2002      	movs	r0, #2
 c000fbe:	f7ff ff5f 	bl	c000e80 <pmu_set_sysactive_time>
 c000fc2:	2000      	movs	r0, #0
 c000fc4:	f7ff ff28 	bl	c000e18 <?Veneer 56 (3) for SOCPS_SWRLDO_Suspend>
 c000fc8:	bdf1      	pop	{r0, r4, r5, r6, r7, pc}
	...

0c000fcc <vPortSuppressTicksAndSleep>:
 c000fcc:	b57c      	push	{r2, r3, r4, r5, r6, lr}
 c000fce:	0006      	movs	r6, r0
 c000fd0:	4c30      	ldr	r4, [pc, #192]	; (c001094 <.text_33>)
 c000fd2:	2000      	movs	r0, #0
 c000fd4:	6020      	str	r0, [r4, #0]
 c000fd6:	4d37      	ldr	r5, [pc, #220]	; (c0010b4 <.text_42>)
 c000fd8:	6828      	ldr	r0, [r5, #0]
 c000fda:	2101      	movs	r1, #1
 c000fdc:	4388      	bics	r0, r1
 c000fde:	6028      	str	r0, [r5, #0]
 c000fe0:	f7ff fcfe 	bl	c0009e0 <vPortEnterCritical>
 c000fe4:	f7ff fb65 	bl	c0006b2 <eTaskConfirmSleepModeStatus>
 c000fe8:	b1c8      	cbz	r0, c00101e <vPortSuppressTicksAndSleep+0x52>
 c000fea:	f7ff ff65 	bl	c000eb8 <freertos_ready_to_sleep>
 c000fee:	b1b0      	cbz	r0, c00101e <vPortSuppressTicksAndSleep+0x52>
 c000ff0:	9600      	str	r6, [sp, #0]
 c000ff2:	4668      	mov	r0, sp
 c000ff4:	f7ff ff8e 	bl	c000f14 <freertos_pre_sleep_processing>
 c000ff8:	9800      	ldr	r0, [sp, #0]
 c000ffa:	2800      	cmp	r0, #0
 c000ffc:	d004      	beq.n	c001008 <vPortSuppressTicksAndSleep+0x3c>
 c000ffe:	f3bf 8f4f 	dsb	sy
 c001002:	bf30      	wfi
 c001004:	f3bf 8f6f 	isb	sy
 c001008:	4829      	ldr	r0, [pc, #164]	; (c0010b0 <.text_40>)
 c00100a:	6800      	ldr	r0, [r0, #0]
 c00100c:	f240 31e8 	movw	r1, #1000	; 0x3e8
 c001010:	fbb0 f0f1 	udiv	r0, r0, r1
 c001014:	68a9      	ldr	r1, [r5, #8]
 c001016:	fbb1 f0f0 	udiv	r0, r1, r0
 c00101a:	1c40      	adds	r0, r0, #1
 c00101c:	9000      	str	r0, [sp, #0]
 c00101e:	f7ff fceb 	bl	c0009f8 <vPortExitCritical>
 c001022:	2001      	movs	r0, #1
 c001024:	6829      	ldr	r1, [r5, #0]
 c001026:	4301      	orrs	r1, r0
 c001028:	6029      	str	r1, [r5, #0]
 c00102a:	6020      	str	r0, [r4, #0]
 c00102c:	f000 ff5b 	bl	c001ee6 <km4_wake_event_update>
 c001030:	f000 ff7d 	bl	c001f2e <km4_get_wake_event>
 c001034:	b128      	cbz	r0, c001042 <vPortSuppressTicksAndSleep+0x76>
 c001036:	f7ff fcd3 	bl	c0009e0 <vPortEnterCritical>
 c00103a:	f000 ff7b 	bl	c001f34 <km4_resume>
 c00103e:	f7ff fcdb 	bl	c0009f8 <vPortExitCritical>
 c001042:	bd73      	pop	{r0, r1, r4, r5, r6, pc}

0c001044 <pmu_acquire_wakelock>:
 c001044:	4912      	ldr	r1, [pc, #72]	; (c001090 <.text_32>)
 c001046:	684a      	ldr	r2, [r1, #4]
 c001048:	2301      	movs	r3, #1
 c00104a:	4083      	lsls	r3, r0
 c00104c:	4313      	orrs	r3, r2
 c00104e:	604b      	str	r3, [r1, #4]
 c001050:	4770      	bx	lr

0c001052 <pmu_release_wakelock>:
 c001052:	490f      	ldr	r1, [pc, #60]	; (c001090 <.text_32>)
 c001054:	684a      	ldr	r2, [r1, #4]
 c001056:	2301      	movs	r3, #1
 c001058:	4083      	lsls	r3, r0
 c00105a:	439a      	bics	r2, r3
 c00105c:	604a      	str	r2, [r1, #4]
 c00105e:	4770      	bx	lr

0c001060 <pmu_get_wakelock_status>:
 c001060:	480b      	ldr	r0, [pc, #44]	; (c001090 <.text_32>)
 c001062:	6840      	ldr	r0, [r0, #4]
 c001064:	4770      	bx	lr

0c001066 <pmu_set_sleep_type>:
 c001066:	490f      	ldr	r1, [pc, #60]	; (c0010a4 <.text_37>)
 c001068:	6909      	ldr	r1, [r1, #16]
 c00106a:	b101      	cbz	r1, c00106e <pmu_set_sleep_type+0x8>
 c00106c:	2000      	movs	r0, #0
 c00106e:	4908      	ldr	r1, [pc, #32]	; (c001090 <.text_32>)
 c001070:	60c8      	str	r0, [r1, #12]
 c001072:	2000      	movs	r0, #0
 c001074:	4770      	bx	lr
	...

0c001078 <.text_27>:
 c001078:	0008b6e8 	.word	0x0008b6e8

0c00107c <pmu_get_deepwakelock_status>:
 c00107c:	4807      	ldr	r0, [pc, #28]	; (c00109c <.text_35>)
 c00107e:	6800      	ldr	r0, [r0, #0]
 c001080:	4770      	bx	lr

0c001082 <pmu_tickless_debug>:
 c001082:	2801      	cmp	r0, #1
 c001084:	d000      	beq.n	c001088 <pmu_tickless_debug+0x6>
 c001086:	2000      	movs	r0, #0
 c001088:	490b      	ldr	r1, [pc, #44]	; (c0010b8 <.text_43>)
 c00108a:	6008      	str	r0, [r1, #0]
 c00108c:	4770      	bx	lr
	...

0c001090 <.text_32>:
 c001090:	00085d08 	.word	0x00085d08

0c001094 <.text_33>:
 c001094:	00085d20 	.word	0x00085d20

0c001098 <.text_34>:
 c001098:	00085d68 	.word	0x00085d68

0c00109c <.text_35>:
 c00109c:	00085d24 	.word	0x00085d24

0c0010a0 <.text_36>:
 c0010a0:	48000098 	.word	0x48000098

0c0010a4 <.text_37>:
 c0010a4:	00086558 	.word	0x00086558

0c0010a8 <.text_38>:
 c0010a8:	000801cc 	.word	0x000801cc

0c0010ac <.text_39>:
 c0010ac:	7fffffff 	.word	0x7fffffff

0c0010b0 <.text_40>:
 c0010b0:	00086590 	.word	0x00086590

0c0010b4 <.text_42>:
 c0010b4:	e000e010 	.word	0xe000e010

0c0010b8 <.text_43>:
 c0010b8:	0008b6e4 	.word	0x0008b6e4

0c0010bc <.text_46>:
 c0010bc:	20306d0d 	.word	0x20306d0d
 c0010c0:	7320736f 	.word	0x7320736f
 c0010c4:	7065656c 	.word	0x7065656c
 c0010c8:	5b3a6465 	.word	0x5b3a6465
 c0010cc:	3e2d6425 	.word	0x3e2d6425
 c0010d0:	253a6425 	.word	0x253a6425
 c0010d4:	75205d64 	.word	0x75205d64
 c0010d8:	0a73      	.short	0x0a73
	...

0c0010dc <xQueueGenericReset>:
 c0010dc:	b538      	push	{r3, r4, r5, lr}
 c0010de:	0005      	movs	r5, r0
 c0010e0:	000c      	movs	r4, r1
 c0010e2:	f7ff fc7d 	bl	c0009e0 <vPortEnterCritical>
 c0010e6:	6c29      	ldr	r1, [r5, #64]	; 0x40
 c0010e8:	6bea      	ldr	r2, [r5, #60]	; 0x3c
 c0010ea:	682b      	ldr	r3, [r5, #0]
 c0010ec:	0010      	movs	r0, r2
 c0010ee:	4348      	muls	r0, r1
 c0010f0:	1818      	adds	r0, r3, r0
 c0010f2:	60a8      	str	r0, [r5, #8]
 c0010f4:	2000      	movs	r0, #0
 c0010f6:	63a8      	str	r0, [r5, #56]	; 0x38
 c0010f8:	606b      	str	r3, [r5, #4]
 c0010fa:	1e52      	subs	r2, r2, #1
 c0010fc:	434a      	muls	r2, r1
 c0010fe:	1898      	adds	r0, r3, r2
 c001100:	60e8      	str	r0, [r5, #12]
 c001102:	0028      	movs	r0, r5
 c001104:	3044      	adds	r0, #68	; 0x44
 c001106:	2100      	movs	r1, #0
 c001108:	43c9      	mvns	r1, r1
 c00110a:	7001      	strb	r1, [r0, #0]
 c00110c:	7041      	strb	r1, [r0, #1]
 c00110e:	b944      	cbnz	r4, c001122 <xQueueGenericReset+0x46>
 c001110:	6928      	ldr	r0, [r5, #16]
 c001112:	b170      	cbz	r0, c001132 <xQueueGenericReset+0x56>
 c001114:	0028      	movs	r0, r5
 c001116:	f000 f9da 	bl	c0014ce <.text_28+0x2>
 c00111a:	b150      	cbz	r0, c001132 <xQueueGenericReset+0x56>
 c00111c:	f7ff fc5a 	bl	c0009d4 <vPortYield>
 c001120:	e007      	b.n	c001132 <xQueueGenericReset+0x56>
 c001122:	0028      	movs	r0, r5
 c001124:	3010      	adds	r0, #16
 c001126:	f7ff fbc9 	bl	c0008bc <vListInitialise>
 c00112a:	0028      	movs	r0, r5
 c00112c:	3024      	adds	r0, #36	; 0x24
 c00112e:	f7ff fbc5 	bl	c0008bc <vListInitialise>
 c001132:	f7ff fc61 	bl	c0009f8 <vPortExitCritical>
 c001136:	2001      	movs	r0, #1
 c001138:	bd32      	pop	{r1, r4, r5, pc}

0c00113a <xQueueGenericCreate>:
 c00113a:	b5f8      	push	{r3, r4, r5, r6, r7, lr}
 c00113c:	0004      	movs	r4, r0
 c00113e:	000f      	movs	r7, r1
 c001140:	0016      	movs	r6, r2
 c001142:	b90f      	cbnz	r7, c001148 <xQueueGenericCreate+0xe>
 c001144:	2054      	movs	r0, #84	; 0x54
 c001146:	e001      	b.n	c00114c <xQueueGenericCreate+0x12>
 c001148:	4378      	muls	r0, r7
 c00114a:	3054      	adds	r0, #84	; 0x54
 c00114c:	f7fe ff76 	bl	c00003c <pvPortMalloc>
 c001150:	0005      	movs	r5, r0
 c001152:	d007      	beq.n	c001164 <xQueueGenericCreate+0x2a>
 c001154:	0033      	movs	r3, r6
 c001156:	9500      	str	r5, [sp, #0]
 c001158:	002a      	movs	r2, r5
 c00115a:	3254      	adds	r2, #84	; 0x54
 c00115c:	0039      	movs	r1, r7
 c00115e:	0020      	movs	r0, r4
 c001160:	f000 f802 	bl	c001168 <prvInitialiseNewQueue>
 c001164:	0028      	movs	r0, r5
 c001166:	bdf2      	pop	{r1, r4, r5, r6, r7, pc}

0c001168 <prvInitialiseNewQueue>:
 c001168:	b538      	push	{r3, r4, r5, lr}
 c00116a:	9c04      	ldr	r4, [sp, #16]
 c00116c:	b901      	cbnz	r1, c001170 <prvInitialiseNewQueue+0x8>
 c00116e:	0022      	movs	r2, r4
 c001170:	001d      	movs	r5, r3
 c001172:	6022      	str	r2, [r4, #0]
 c001174:	63e0      	str	r0, [r4, #60]	; 0x3c
 c001176:	6421      	str	r1, [r4, #64]	; 0x40
 c001178:	2101      	movs	r1, #1
 c00117a:	0020      	movs	r0, r4
 c00117c:	f7ff ffae 	bl	c0010dc <xQueueGenericReset>
 c001180:	2050      	movs	r0, #80	; 0x50
 c001182:	5425      	strb	r5, [r4, r0]
 c001184:	2000      	movs	r0, #0
 c001186:	64a0      	str	r0, [r4, #72]	; 0x48
 c001188:	bd31      	pop	{r0, r4, r5, pc}

0c00118a <xQueueGenericSend>:
 c00118a:	b5f7      	push	{r0, r1, r2, r4, r5, r6, r7, lr}
 c00118c:	b082      	sub	sp, #8
 c00118e:	2700      	movs	r7, #0
 c001190:	2500      	movs	r5, #0
 c001192:	0004      	movs	r4, r0
 c001194:	001e      	movs	r6, r3
 c001196:	e00b      	b.n	c0011b0 <xQueueGenericSend+0x26>
 c001198:	9904      	ldr	r1, [sp, #16]
 c00119a:	0020      	movs	r0, r4
 c00119c:	3010      	adds	r0, #16
 c00119e:	f7ff f9dd 	bl	c00055c <vTaskPlaceOnEventList>
 c0011a2:	f000 f96e 	bl	c001482 <.text_21>
 c0011a6:	f7ff f910 	bl	c0003ca <xTaskResumeAll>
 c0011aa:	b908      	cbnz	r0, c0011b0 <xQueueGenericSend+0x26>
 c0011ac:	f7ff fc12 	bl	c0009d4 <vPortYield>
 c0011b0:	f7ff fc16 	bl	c0009e0 <vPortEnterCritical>
 c0011b4:	f000 f8a3 	bl	c0012fe <.text_13>
 c0011b8:	d32d      	bcc.n	c001216 <xQueueGenericSend+0x8c>
 c0011ba:	2e02      	cmp	r6, #2
 c0011bc:	d02b      	beq.n	c001216 <xQueueGenericSend+0x8c>
 c0011be:	9804      	ldr	r0, [sp, #16]
 c0011c0:	2800      	cmp	r0, #0
 c0011c2:	d025      	beq.n	c001210 <xQueueGenericSend+0x86>
 c0011c4:	b915      	cbnz	r5, c0011cc <xQueueGenericSend+0x42>
 c0011c6:	f000 f952 	bl	c00146e <.text_18>
 c0011ca:	2501      	movs	r5, #1
 c0011cc:	f7ff fc14 	bl	c0009f8 <vPortExitCritical>
 c0011d0:	f7ff f8e4 	bl	c00039c <vTaskSuspendAll>
 c0011d4:	f7ff fc04 	bl	c0009e0 <vPortEnterCritical>
 c0011d8:	f000 f955 	bl	c001486 <.text_22>
 c0011dc:	a904      	add	r1, sp, #16
 c0011de:	f000 f943 	bl	c001468 <.text_17+0x2>
 c0011e2:	2800      	cmp	r0, #0
 c0011e4:	d12a      	bne.n	c00123c <xQueueGenericSend+0xb2>
 c0011e6:	0020      	movs	r0, r4
 c0011e8:	f000 f9fd 	bl	c0015e6 <prvIsQueueFull>
 c0011ec:	2800      	cmp	r0, #0
 c0011ee:	d1d3      	bne.n	c001198 <xQueueGenericSend+0xe>
 c0011f0:	f000 f947 	bl	c001482 <.text_21>
 c0011f4:	f7ff f8e9 	bl	c0003ca <xTaskResumeAll>
 c0011f8:	e7da      	b.n	c0011b0 <xQueueGenericSend+0x26>
 c0011fa:	6a61      	ldr	r1, [r4, #36]	; 0x24
 c0011fc:	b109      	cbz	r1, c001202 <xQueueGenericSend+0x78>
 c0011fe:	f000 f961 	bl	c0014c4 <.text_26>
 c001202:	b108      	cbz	r0, c001208 <xQueueGenericSend+0x7e>
 c001204:	f7ff fbe6 	bl	c0009d4 <vPortYield>
 c001208:	f7ff fbf6 	bl	c0009f8 <vPortExitCritical>
 c00120c:	2001      	movs	r0, #1
 c00120e:	e01a      	b.n	c001246 <xQueueGenericSend+0xbc>
 c001210:	f7ff fbf2 	bl	c0009f8 <vPortExitCritical>
 c001214:	e016      	b.n	c001244 <xQueueGenericSend+0xba>
 c001216:	9903      	ldr	r1, [sp, #12]
 c001218:	6ba5      	ldr	r5, [r4, #56]	; 0x38
 c00121a:	0032      	movs	r2, r6
 c00121c:	0020      	movs	r0, r4
 c00121e:	f000 f95d 	bl	c0014dc <prvCopyDataToQueue>
 c001222:	0021      	movs	r1, r4
 c001224:	3144      	adds	r1, #68	; 0x44
 c001226:	6849      	ldr	r1, [r1, #4]
 c001228:	2900      	cmp	r1, #0
 c00122a:	d0e6      	beq.n	c0011fa <xQueueGenericSend+0x70>
 c00122c:	2e02      	cmp	r6, #2
 c00122e:	d101      	bne.n	c001234 <xQueueGenericSend+0xaa>
 c001230:	2d00      	cmp	r5, #0
 c001232:	d1e9      	bne.n	c001208 <xQueueGenericSend+0x7e>
 c001234:	0031      	movs	r1, r6
 c001236:	f000 f867 	bl	c001308 <.text_14+0x2>
 c00123a:	e7e2      	b.n	c001202 <xQueueGenericSend+0x78>
 c00123c:	f000 f921 	bl	c001482 <.text_21>
 c001240:	f7ff f8c3 	bl	c0003ca <xTaskResumeAll>
 c001244:	2000      	movs	r0, #0
 c001246:	b005      	add	sp, #20
 c001248:	bdf0      	pop	{r4, r5, r6, r7, pc}

0c00124a <xQueueGenericSendFromISR>:
 c00124a:	b5fe      	push	{r1, r2, r3, r4, r5, r6, r7, lr}
 c00124c:	0004      	movs	r4, r0
 c00124e:	000d      	movs	r5, r1
 c001250:	0017      	movs	r7, r2
 c001252:	f010 faa9 	bl	c0117a8 <ulSetInterruptMaskFromISR>
 c001256:	9000      	str	r0, [sp, #0]
 c001258:	f000 f851 	bl	c0012fe <.text_13>
 c00125c:	d302      	bcc.n	c001264 <xQueueGenericSendFromISR+0x1a>
 c00125e:	9802      	ldr	r0, [sp, #8]
 c001260:	2802      	cmp	r0, #2
 c001262:	d11d      	bne.n	c0012a0 <xQueueGenericSendFromISR+0x56>
 c001264:	0029      	movs	r1, r5
 c001266:	2045      	movs	r0, #69	; 0x45
 c001268:	5626      	ldrsb	r6, [r4, r0]
 c00126a:	9a02      	ldr	r2, [sp, #8]
 c00126c:	0020      	movs	r0, r4
 c00126e:	f000 f935 	bl	c0014dc <prvCopyDataToQueue>
 c001272:	2501      	movs	r5, #1
 c001274:	2000      	movs	r0, #0
 c001276:	43c0      	mvns	r0, r0
 c001278:	4286      	cmp	r6, r0
 c00127a:	d10d      	bne.n	c001298 <xQueueGenericSendFromISR+0x4e>
 c00127c:	6ca0      	ldr	r0, [r4, #72]	; 0x48
 c00127e:	b118      	cbz	r0, c001288 <xQueueGenericSendFromISR+0x3e>
 c001280:	9902      	ldr	r1, [sp, #8]
 c001282:	f000 f841 	bl	c001308 <.text_14+0x2>
 c001286:	e003      	b.n	c001290 <xQueueGenericSendFromISR+0x46>
 c001288:	6a60      	ldr	r0, [r4, #36]	; 0x24
 c00128a:	b150      	cbz	r0, c0012a2 <xQueueGenericSendFromISR+0x58>
 c00128c:	f000 f91a 	bl	c0014c4 <.text_26>
 c001290:	b138      	cbz	r0, c0012a2 <xQueueGenericSendFromISR+0x58>
 c001292:	b137      	cbz	r7, c0012a2 <xQueueGenericSendFromISR+0x58>
 c001294:	603d      	str	r5, [r7, #0]
 c001296:	e004      	b.n	c0012a2 <xQueueGenericSendFromISR+0x58>
 c001298:	1c76      	adds	r6, r6, #1
 c00129a:	2045      	movs	r0, #69	; 0x45
 c00129c:	5426      	strb	r6, [r4, r0]
 c00129e:	e000      	b.n	c0012a2 <xQueueGenericSendFromISR+0x58>
 c0012a0:	2500      	movs	r5, #0
 c0012a2:	9800      	ldr	r0, [sp, #0]
 c0012a4:	f010 fa84 	bl	c0117b0 <vClearInterruptMaskFromISR>
 c0012a8:	0028      	movs	r0, r5
 c0012aa:	bdfe      	pop	{r1, r2, r3, r4, r5, r6, r7, pc}

0c0012ac <xQueueGiveFromISR>:
 c0012ac:	b5f8      	push	{r3, r4, r5, r6, r7, lr}
 c0012ae:	0004      	movs	r4, r0
 c0012b0:	000e      	movs	r6, r1
 c0012b2:	f010 fa79 	bl	c0117a8 <ulSetInterruptMaskFromISR>
 c0012b6:	0007      	movs	r7, r0
 c0012b8:	f000 f821 	bl	c0012fe <.text_13>
 c0012bc:	d219      	bcs.n	c0012f2 <xQueueGiveFromISR+0x46>
 c0012be:	2145      	movs	r1, #69	; 0x45
 c0012c0:	5661      	ldrsb	r1, [r4, r1]
 c0012c2:	1c40      	adds	r0, r0, #1
 c0012c4:	63a0      	str	r0, [r4, #56]	; 0x38
 c0012c6:	2501      	movs	r5, #1
 c0012c8:	2000      	movs	r0, #0
 c0012ca:	43c0      	mvns	r0, r0
 c0012cc:	4281      	cmp	r1, r0
 c0012ce:	d10c      	bne.n	c0012ea <xQueueGiveFromISR+0x3e>
 c0012d0:	6ca0      	ldr	r0, [r4, #72]	; 0x48
 c0012d2:	b110      	cbz	r0, c0012da <xQueueGiveFromISR+0x2e>
 c0012d4:	f000 f817 	bl	c001306 <.text_14>
 c0012d8:	e003      	b.n	c0012e2 <xQueueGiveFromISR+0x36>
 c0012da:	6a60      	ldr	r0, [r4, #36]	; 0x24
 c0012dc:	b150      	cbz	r0, c0012f4 <xQueueGiveFromISR+0x48>
 c0012de:	f000 f8f1 	bl	c0014c4 <.text_26>
 c0012e2:	b138      	cbz	r0, c0012f4 <xQueueGiveFromISR+0x48>
 c0012e4:	b136      	cbz	r6, c0012f4 <xQueueGiveFromISR+0x48>
 c0012e6:	6035      	str	r5, [r6, #0]
 c0012e8:	e004      	b.n	c0012f4 <xQueueGiveFromISR+0x48>
 c0012ea:	1c49      	adds	r1, r1, #1
 c0012ec:	2045      	movs	r0, #69	; 0x45
 c0012ee:	5421      	strb	r1, [r4, r0]
 c0012f0:	e000      	b.n	c0012f4 <xQueueGiveFromISR+0x48>
 c0012f2:	2500      	movs	r5, #0
 c0012f4:	0038      	movs	r0, r7
 c0012f6:	f010 fa5b 	bl	c0117b0 <vClearInterruptMaskFromISR>
 c0012fa:	0028      	movs	r0, r5
 c0012fc:	bdf2      	pop	{r1, r4, r5, r6, r7, pc}

0c0012fe <.text_13>:
 c0012fe:	6ba0      	ldr	r0, [r4, #56]	; 0x38
 c001300:	6be1      	ldr	r1, [r4, #60]	; 0x3c
 c001302:	4288      	cmp	r0, r1
 c001304:	4770      	bx	lr

0c001306 <.text_14>:
 c001306:	2100      	movs	r1, #0
 c001308:	0020      	movs	r0, r4
 c00130a:	e199      	b.n	c001640 <prvNotifyQueueSetContainer>

0c00130c <xQueueReceive>:
 c00130c:	b5f7      	push	{r0, r1, r2, r4, r5, r6, r7, lr}
 c00130e:	000f      	movs	r7, r1
 c001310:	2600      	movs	r6, #0
 c001312:	2500      	movs	r5, #0
 c001314:	0004      	movs	r4, r0
 c001316:	e003      	b.n	c001320 <xQueueReceive+0x14>
 c001318:	f000 f8b3 	bl	c001482 <.text_21>
 c00131c:	f7ff f855 	bl	c0003ca <xTaskResumeAll>
 c001320:	f7ff fb5e 	bl	c0009e0 <vPortEnterCritical>
 c001324:	6ba0      	ldr	r0, [r4, #56]	; 0x38
 c001326:	b920      	cbnz	r0, c001332 <xQueueReceive+0x26>
 c001328:	9802      	ldr	r0, [sp, #8]
 c00132a:	b948      	cbnz	r0, c001340 <xQueueReceive+0x34>
 c00132c:	f7ff fb64 	bl	c0009f8 <vPortExitCritical>
 c001330:	e03b      	b.n	c0013aa <xQueueReceive+0x9e>
 c001332:	0005      	movs	r5, r0
 c001334:	0039      	movs	r1, r7
 c001336:	f000 f8c3 	bl	c0014c0 <.text_25+0x2>
 c00133a:	1e6d      	subs	r5, r5, #1
 c00133c:	63a5      	str	r5, [r4, #56]	; 0x38
 c00133e:	e0b3      	b.n	c0014a8 <.text_23>
 c001340:	b915      	cbnz	r5, c001348 <xQueueReceive+0x3c>
 c001342:	f000 f894 	bl	c00146e <.text_18>
 c001346:	2501      	movs	r5, #1
 c001348:	f7ff fb56 	bl	c0009f8 <vPortExitCritical>
 c00134c:	f7ff f826 	bl	c00039c <vTaskSuspendAll>
 c001350:	f7ff fb46 	bl	c0009e0 <vPortEnterCritical>
 c001354:	2000      	movs	r0, #0
 c001356:	43c0      	mvns	r0, r0
 c001358:	2144      	movs	r1, #68	; 0x44
 c00135a:	5661      	ldrsb	r1, [r4, r1]
 c00135c:	4281      	cmp	r1, r0
 c00135e:	d101      	bne.n	c001364 <xQueueReceive+0x58>
 c001360:	2244      	movs	r2, #68	; 0x44
 c001362:	54a6      	strb	r6, [r4, r2]
 c001364:	0021      	movs	r1, r4
 c001366:	3144      	adds	r1, #68	; 0x44
 c001368:	2201      	movs	r2, #1
 c00136a:	568a      	ldrsb	r2, [r1, r2]
 c00136c:	4282      	cmp	r2, r0
 c00136e:	d100      	bne.n	c001372 <xQueueReceive+0x66>
 c001370:	704e      	strb	r6, [r1, #1]
 c001372:	f7ff fb41 	bl	c0009f8 <vPortExitCritical>
 c001376:	f000 f876 	bl	c001466 <.text_17>
 c00137a:	b970      	cbnz	r0, c00139a <xQueueReceive+0x8e>
 c00137c:	f000 f87f 	bl	c00147e <.text_20>
 c001380:	2800      	cmp	r0, #0
 c001382:	d0c9      	beq.n	c001318 <xQueueReceive+0xc>
 c001384:	f000 f876 	bl	c001474 <.text_19>
 c001388:	f000 f87b 	bl	c001482 <.text_21>
 c00138c:	f7ff f81d 	bl	c0003ca <xTaskResumeAll>
 c001390:	2800      	cmp	r0, #0
 c001392:	d1c5      	bne.n	c001320 <xQueueReceive+0x14>
 c001394:	f7ff fb1e 	bl	c0009d4 <vPortYield>
 c001398:	e7c2      	b.n	c001320 <xQueueReceive+0x14>
 c00139a:	f000 f872 	bl	c001482 <.text_21>
 c00139e:	f7ff f814 	bl	c0003ca <xTaskResumeAll>
 c0013a2:	f000 f86c 	bl	c00147e <.text_20>
 c0013a6:	2800      	cmp	r0, #0
 c0013a8:	d0ba      	beq.n	c001320 <xQueueReceive+0x14>
 c0013aa:	2000      	movs	r0, #0
 c0013ac:	bdfe      	pop	{r1, r2, r3, r4, r5, r6, r7, pc}

0c0013ae <xQueueSemaphoreTake>:
 c0013ae:	b5f2      	push	{r1, r4, r5, r6, r7, lr}
 c0013b0:	b082      	sub	sp, #8
 c0013b2:	2700      	movs	r7, #0
 c0013b4:	2600      	movs	r6, #0
 c0013b6:	2500      	movs	r5, #0
 c0013b8:	0004      	movs	r4, r0
 c0013ba:	e003      	b.n	c0013c4 <xQueueSemaphoreTake+0x16>
 c0013bc:	f000 f861 	bl	c001482 <.text_21>
 c0013c0:	f7ff f803 	bl	c0003ca <xTaskResumeAll>
 c0013c4:	f7ff fb0c 	bl	c0009e0 <vPortEnterCritical>
 c0013c8:	6ba0      	ldr	r0, [r4, #56]	; 0x38
 c0013ca:	b910      	cbnz	r0, c0013d2 <xQueueSemaphoreTake+0x24>
 c0013cc:	9802      	ldr	r0, [sp, #8]
 c0013ce:	b940      	cbnz	r0, c0013e2 <xQueueSemaphoreTake+0x34>
 c0013d0:	e045      	b.n	c00145e <xQueueSemaphoreTake+0xb0>
 c0013d2:	1e40      	subs	r0, r0, #1
 c0013d4:	63a0      	str	r0, [r4, #56]	; 0x38
 c0013d6:	6820      	ldr	r0, [r4, #0]
 c0013d8:	b910      	cbnz	r0, c0013e0 <xQueueSemaphoreTake+0x32>
 c0013da:	f7ff fa27 	bl	c00082c <pvTaskIncrementMutexHeldCount>
 c0013de:	60a0      	str	r0, [r4, #8]
 c0013e0:	e062      	b.n	c0014a8 <.text_23>
 c0013e2:	b916      	cbnz	r6, c0013ea <xQueueSemaphoreTake+0x3c>
 c0013e4:	f000 f843 	bl	c00146e <.text_18>
 c0013e8:	2601      	movs	r6, #1
 c0013ea:	f7ff fb05 	bl	c0009f8 <vPortExitCritical>
 c0013ee:	f7fe ffd5 	bl	c00039c <vTaskSuspendAll>
 c0013f2:	f7ff faf5 	bl	c0009e0 <vPortEnterCritical>
 c0013f6:	f000 f846 	bl	c001486 <.text_22>
 c0013fa:	f000 f834 	bl	c001466 <.text_17>
 c0013fe:	b9c0      	cbnz	r0, c001432 <xQueueSemaphoreTake+0x84>
 c001400:	f000 f83d 	bl	c00147e <.text_20>
 c001404:	2800      	cmp	r0, #0
 c001406:	d0d9      	beq.n	c0013bc <xQueueSemaphoreTake+0xe>
 c001408:	6820      	ldr	r0, [r4, #0]
 c00140a:	b938      	cbnz	r0, c00141c <xQueueSemaphoreTake+0x6e>
 c00140c:	f7ff fae8 	bl	c0009e0 <vPortEnterCritical>
 c001410:	68a0      	ldr	r0, [r4, #8]
 c001412:	f7ff f985 	bl	c000720 <xTaskPriorityInherit>
 c001416:	0005      	movs	r5, r0
 c001418:	f7ff faee 	bl	c0009f8 <vPortExitCritical>
 c00141c:	f000 f82a 	bl	c001474 <.text_19>
 c001420:	f000 f82f 	bl	c001482 <.text_21>
 c001424:	f7fe ffd1 	bl	c0003ca <xTaskResumeAll>
 c001428:	2800      	cmp	r0, #0
 c00142a:	d1cb      	bne.n	c0013c4 <xQueueSemaphoreTake+0x16>
 c00142c:	f7ff fad2 	bl	c0009d4 <vPortYield>
 c001430:	e7c8      	b.n	c0013c4 <xQueueSemaphoreTake+0x16>
 c001432:	f000 f826 	bl	c001482 <.text_21>
 c001436:	f7fe ffc8 	bl	c0003ca <xTaskResumeAll>
 c00143a:	f000 f820 	bl	c00147e <.text_20>
 c00143e:	2800      	cmp	r0, #0
 c001440:	d0c0      	beq.n	c0013c4 <xQueueSemaphoreTake+0x16>
 c001442:	b175      	cbz	r5, c001462 <xQueueSemaphoreTake+0xb4>
 c001444:	f7ff facc 	bl	c0009e0 <vPortEnterCritical>
 c001448:	6a60      	ldr	r0, [r4, #36]	; 0x24
 c00144a:	b120      	cbz	r0, c001456 <xQueueSemaphoreTake+0xa8>
 c00144c:	200b      	movs	r0, #11
 c00144e:	6b21      	ldr	r1, [r4, #48]	; 0x30
 c001450:	6809      	ldr	r1, [r1, #0]
 c001452:	1a41      	subs	r1, r0, r1
 c001454:	e000      	b.n	c001458 <xQueueSemaphoreTake+0xaa>
 c001456:	2100      	movs	r1, #0
 c001458:	68a0      	ldr	r0, [r4, #8]
 c00145a:	f7ff f9b7 	bl	c0007cc <vTaskPriorityDisinheritAfterTimeout>
 c00145e:	f7ff facb 	bl	c0009f8 <vPortExitCritical>
 c001462:	2000      	movs	r0, #0
 c001464:	bdfe      	pop	{r1, r2, r3, r4, r5, r6, r7, pc}

0c001466 <.text_17>:
 c001466:	a902      	add	r1, sp, #8
 c001468:	4668      	mov	r0, sp
 c00146a:	f7ff b8c7 	b.w	c0005fc <xTaskCheckForTimeOut>

0c00146e <.text_18>:
 c00146e:	4668      	mov	r0, sp
 c001470:	f7ff b8be 	b.w	c0005f0 <vTaskInternalSetTimeOutState>

0c001474 <.text_19>:
 c001474:	9902      	ldr	r1, [sp, #8]
 c001476:	0020      	movs	r0, r4
 c001478:	3024      	adds	r0, #36	; 0x24
 c00147a:	f7ff b86f 	b.w	c00055c <vTaskPlaceOnEventList>

0c00147e <.text_20>:
 c00147e:	0020      	movs	r0, r4
 c001480:	e0a9      	b.n	c0015d6 <prvIsQueueEmpty>

0c001482 <.text_21>:
 c001482:	0020      	movs	r0, r4
 c001484:	e072      	b.n	c00156c <prvUnlockQueue>

0c001486 <.text_22>:
 c001486:	2000      	movs	r0, #0
 c001488:	43c0      	mvns	r0, r0
 c00148a:	2144      	movs	r1, #68	; 0x44
 c00148c:	5661      	ldrsb	r1, [r4, r1]
 c00148e:	4281      	cmp	r1, r0
 c001490:	d101      	bne.n	c001496 <.text_22+0x10>
 c001492:	2244      	movs	r2, #68	; 0x44
 c001494:	54a7      	strb	r7, [r4, r2]
 c001496:	0021      	movs	r1, r4
 c001498:	3144      	adds	r1, #68	; 0x44
 c00149a:	2201      	movs	r2, #1
 c00149c:	568a      	ldrsb	r2, [r1, r2]
 c00149e:	4282      	cmp	r2, r0
 c0014a0:	d100      	bne.n	c0014a4 <.text_22+0x1e>
 c0014a2:	704f      	strb	r7, [r1, #1]
 c0014a4:	f7ff baa8 	b.w	c0009f8 <vPortExitCritical>

0c0014a8 <.text_23>:
 c0014a8:	6920      	ldr	r0, [r4, #16]
 c0014aa:	b120      	cbz	r0, c0014b6 <.text_23+0xe>
 c0014ac:	f000 f80e 	bl	c0014cc <.text_28>
 c0014b0:	b108      	cbz	r0, c0014b6 <.text_23+0xe>
 c0014b2:	f7ff fa8f 	bl	c0009d4 <vPortYield>
 c0014b6:	f7ff fa9f 	bl	c0009f8 <vPortExitCritical>
 c0014ba:	2001      	movs	r0, #1
 c0014bc:	bdfe      	pop	{r1, r2, r3, r4, r5, r6, r7, pc}

0c0014be <.text_25>:
 c0014be:	68e5      	ldr	r5, [r4, #12]
 c0014c0:	0020      	movs	r0, r4
 c0014c2:	e040      	b.n	c001546 <prvCopyDataFromQueue>

0c0014c4 <.text_26>:
 c0014c4:	0020      	movs	r0, r4
 c0014c6:	3024      	adds	r0, #36	; 0x24
 c0014c8:	f7ff b86a 	b.w	c0005a0 <xTaskRemoveFromEventList>

0c0014cc <.text_28>:
 c0014cc:	0020      	movs	r0, r4
 c0014ce:	3010      	adds	r0, #16
 c0014d0:	f7ff b866 	b.w	c0005a0 <xTaskRemoveFromEventList>

0c0014d4 <.text_32>:
 c0014d4:	f7ff fa90 	bl	c0009f8 <vPortExitCritical>
 c0014d8:	0020      	movs	r0, r4
 c0014da:	bd10      	pop	{r4, pc}

0c0014dc <prvCopyDataToQueue>:
 c0014dc:	b5f8      	push	{r3, r4, r5, r6, r7, lr}
 c0014de:	0004      	movs	r4, r0
 c0014e0:	0010      	movs	r0, r2
 c0014e2:	2600      	movs	r6, #0
 c0014e4:	2700      	movs	r7, #0
 c0014e6:	6ba5      	ldr	r5, [r4, #56]	; 0x38
 c0014e8:	6c22      	ldr	r2, [r4, #64]	; 0x40
 c0014ea:	b93a      	cbnz	r2, c0014fc <prvCopyDataToQueue+0x20>
 c0014ec:	6820      	ldr	r0, [r4, #0]
 c0014ee:	bb30      	cbnz	r0, c00153e <prvCopyDataToQueue+0x62>
 c0014f0:	68a0      	ldr	r0, [r4, #8]
 c0014f2:	f7ff f94c 	bl	c00078e <xTaskPriorityDisinherit>
 c0014f6:	0007      	movs	r7, r0
 c0014f8:	60a6      	str	r6, [r4, #8]
 c0014fa:	e020      	b.n	c00153e <prvCopyDataToQueue+0x62>
 c0014fc:	0006      	movs	r6, r0
 c0014fe:	d10c      	bne.n	c00151a <prvCopyDataToQueue+0x3e>
 c001500:	6860      	ldr	r0, [r4, #4]
 c001502:	f000 fe55 	bl	c0021b0 <__aeabi_memcpy>
 c001506:	6860      	ldr	r0, [r4, #4]
 c001508:	6c21      	ldr	r1, [r4, #64]	; 0x40
 c00150a:	1840      	adds	r0, r0, r1
 c00150c:	6060      	str	r0, [r4, #4]
 c00150e:	68a1      	ldr	r1, [r4, #8]
 c001510:	4288      	cmp	r0, r1
 c001512:	d314      	bcc.n	c00153e <prvCopyDataToQueue+0x62>
 c001514:	6820      	ldr	r0, [r4, #0]
 c001516:	6060      	str	r0, [r4, #4]
 c001518:	e011      	b.n	c00153e <prvCopyDataToQueue+0x62>
 c00151a:	68e0      	ldr	r0, [r4, #12]
 c00151c:	f000 fe48 	bl	c0021b0 <__aeabi_memcpy>
 c001520:	6c21      	ldr	r1, [r4, #64]	; 0x40
 c001522:	4248      	negs	r0, r1
 c001524:	68e1      	ldr	r1, [r4, #12]
 c001526:	1809      	adds	r1, r1, r0
 c001528:	60e1      	str	r1, [r4, #12]
 c00152a:	6822      	ldr	r2, [r4, #0]
 c00152c:	4291      	cmp	r1, r2
 c00152e:	d202      	bcs.n	c001536 <prvCopyDataToQueue+0x5a>
 c001530:	68a1      	ldr	r1, [r4, #8]
 c001532:	1808      	adds	r0, r1, r0
 c001534:	60e0      	str	r0, [r4, #12]
 c001536:	2e02      	cmp	r6, #2
 c001538:	d101      	bne.n	c00153e <prvCopyDataToQueue+0x62>
 c00153a:	b105      	cbz	r5, c00153e <prvCopyDataToQueue+0x62>
 c00153c:	1e6d      	subs	r5, r5, #1
 c00153e:	1c6d      	adds	r5, r5, #1
 c001540:	63a5      	str	r5, [r4, #56]	; 0x38
 c001542:	0038      	movs	r0, r7
 c001544:	bdf2      	pop	{r1, r4, r5, r6, r7, pc}

0c001546 <prvCopyDataFromQueue>:
 c001546:	b418      	push	{r3, r4}
 c001548:	000b      	movs	r3, r1
 c00154a:	6c02      	ldr	r2, [r0, #64]	; 0x40
 c00154c:	b162      	cbz	r2, c001568 <prvCopyDataFromQueue+0x22>
 c00154e:	68c1      	ldr	r1, [r0, #12]
 c001550:	1889      	adds	r1, r1, r2
 c001552:	60c1      	str	r1, [r0, #12]
 c001554:	6884      	ldr	r4, [r0, #8]
 c001556:	42a1      	cmp	r1, r4
 c001558:	d301      	bcc.n	c00155e <prvCopyDataFromQueue+0x18>
 c00155a:	6801      	ldr	r1, [r0, #0]
 c00155c:	60c1      	str	r1, [r0, #12]
 c00155e:	68c1      	ldr	r1, [r0, #12]
 c001560:	0018      	movs	r0, r3
 c001562:	bc18      	pop	{r3, r4}
 c001564:	f000 be24 	b.w	c0021b0 <__aeabi_memcpy>
 c001568:	bc11      	pop	{r0, r4}
 c00156a:	4770      	bx	lr

0c00156c <prvUnlockQueue>:
 c00156c:	b5f8      	push	{r3, r4, r5, r6, r7, lr}
 c00156e:	f000 f82f 	bl	c0015d0 <.text_41>
 c001572:	0027      	movs	r7, r4
 c001574:	3744      	adds	r7, #68	; 0x44
 c001576:	2001      	movs	r0, #1
 c001578:	563d      	ldrsb	r5, [r7, r0]
 c00157a:	e007      	b.n	c00158c <prvUnlockQueue+0x20>
 c00157c:	6a60      	ldr	r0, [r4, #36]	; 0x24
 c00157e:	b1b8      	cbz	r0, c0015b0 <prvUnlockQueue+0x44>
 c001580:	f7ff ffa0 	bl	c0014c4 <.text_26>
 c001584:	b108      	cbz	r0, c00158a <prvUnlockQueue+0x1e>
 c001586:	f7ff f866 	bl	c000656 <vTaskMissedYield>
 c00158a:	1e6d      	subs	r5, r5, #1
 c00158c:	b268      	sxtb	r0, r5
 c00158e:	2801      	cmp	r0, #1
 c001590:	db0e      	blt.n	c0015b0 <prvUnlockQueue+0x44>
 c001592:	6878      	ldr	r0, [r7, #4]
 c001594:	2800      	cmp	r0, #0
 c001596:	d0f1      	beq.n	c00157c <prvUnlockQueue+0x10>
 c001598:	f7ff feb5 	bl	c001306 <.text_14>
 c00159c:	e7f2      	b.n	c001584 <prvUnlockQueue+0x18>
 c00159e:	6920      	ldr	r0, [r4, #16]
 c0015a0:	b190      	cbz	r0, c0015c8 <prvUnlockQueue+0x5c>
 c0015a2:	f7ff ff93 	bl	c0014cc <.text_28>
 c0015a6:	b108      	cbz	r0, c0015ac <prvUnlockQueue+0x40>
 c0015a8:	f7ff f855 	bl	c000656 <vTaskMissedYield>
 c0015ac:	1e76      	subs	r6, r6, #1
 c0015ae:	e008      	b.n	c0015c2 <prvUnlockQueue+0x56>
 c0015b0:	2000      	movs	r0, #0
 c0015b2:	43c5      	mvns	r5, r0
 c0015b4:	707d      	strb	r5, [r7, #1]
 c0015b6:	f7ff fa1f 	bl	c0009f8 <vPortExitCritical>
 c0015ba:	f7ff fa11 	bl	c0009e0 <vPortEnterCritical>
 c0015be:	2044      	movs	r0, #68	; 0x44
 c0015c0:	5626      	ldrsb	r6, [r4, r0]
 c0015c2:	b270      	sxtb	r0, r6
 c0015c4:	2801      	cmp	r0, #1
 c0015c6:	daea      	bge.n	c00159e <prvUnlockQueue+0x32>
 c0015c8:	703d      	strb	r5, [r7, #0]
 c0015ca:	f7ff fa15 	bl	c0009f8 <vPortExitCritical>
 c0015ce:	bdf1      	pop	{r0, r4, r5, r6, r7, pc}

0c0015d0 <.text_41>:
 c0015d0:	0004      	movs	r4, r0
 c0015d2:	f7ff ba05 	b.w	c0009e0 <vPortEnterCritical>

0c0015d6 <prvIsQueueEmpty>:
 c0015d6:	b510      	push	{r4, lr}
 c0015d8:	f7ff fffa 	bl	c0015d0 <.text_41>
 c0015dc:	6ba0      	ldr	r0, [r4, #56]	; 0x38
 c0015de:	1e44      	subs	r4, r0, #1
 c0015e0:	41a4      	sbcs	r4, r4
 c0015e2:	0fe4      	lsrs	r4, r4, #31
 c0015e4:	e776      	b.n	c0014d4 <.text_32>

0c0015e6 <prvIsQueueFull>:
 c0015e6:	b510      	push	{r4, lr}
 c0015e8:	f7ff fff2 	bl	c0015d0 <.text_41>
 c0015ec:	f7ff fe87 	bl	c0012fe <.text_13>
 c0015f0:	d101      	bne.n	c0015f6 <prvIsQueueFull+0x10>
 c0015f2:	2401      	movs	r4, #1
 c0015f4:	e000      	b.n	c0015f8 <prvIsQueueFull+0x12>
 c0015f6:	2400      	movs	r4, #0
 c0015f8:	e76c      	b.n	c0014d4 <.text_32>

0c0015fa <vQueueWaitForMessageRestricted>:
 c0015fa:	b570      	push	{r4, r5, r6, lr}
 c0015fc:	0004      	movs	r4, r0
 c0015fe:	000d      	movs	r5, r1
 c001600:	0016      	movs	r6, r2
 c001602:	f7ff f9ed 	bl	c0009e0 <vPortEnterCritical>
 c001606:	2000      	movs	r0, #0
 c001608:	2100      	movs	r1, #0
 c00160a:	43c9      	mvns	r1, r1
 c00160c:	2244      	movs	r2, #68	; 0x44
 c00160e:	56a2      	ldrsb	r2, [r4, r2]
 c001610:	428a      	cmp	r2, r1
 c001612:	d101      	bne.n	c001618 <vQueueWaitForMessageRestricted+0x1e>
 c001614:	2344      	movs	r3, #68	; 0x44
 c001616:	54e0      	strb	r0, [r4, r3]
 c001618:	2245      	movs	r2, #69	; 0x45
 c00161a:	56a2      	ldrsb	r2, [r4, r2]
 c00161c:	428a      	cmp	r2, r1
 c00161e:	d101      	bne.n	c001624 <vQueueWaitForMessageRestricted+0x2a>
 c001620:	2145      	movs	r1, #69	; 0x45
 c001622:	5460      	strb	r0, [r4, r1]
 c001624:	f7ff f9e8 	bl	c0009f8 <vPortExitCritical>
 c001628:	6ba0      	ldr	r0, [r4, #56]	; 0x38
 c00162a:	b928      	cbnz	r0, c001638 <vQueueWaitForMessageRestricted+0x3e>
 c00162c:	0032      	movs	r2, r6
 c00162e:	0029      	movs	r1, r5
 c001630:	0020      	movs	r0, r4
 c001632:	3024      	adds	r0, #36	; 0x24
 c001634:	f7fe ffa4 	bl	c000580 <vTaskPlaceOnEventListRestricted>
 c001638:	0020      	movs	r0, r4
 c00163a:	f7ff ff97 	bl	c00156c <prvUnlockQueue>
 c00163e:	bd70      	pop	{r4, r5, r6, pc}

0c001640 <prvNotifyQueueSetContainer>:
 c001640:	b571      	push	{r0, r4, r5, r6, lr}
 c001642:	b081      	sub	sp, #4
 c001644:	6c84      	ldr	r4, [r0, #72]	; 0x48
 c001646:	2600      	movs	r6, #0
 c001648:	6ba0      	ldr	r0, [r4, #56]	; 0x38
 c00164a:	6be2      	ldr	r2, [r4, #60]	; 0x3c
 c00164c:	4290      	cmp	r0, r2
 c00164e:	d215      	bcs.n	c00167c <prvNotifyQueueSetContainer+0x3c>
 c001650:	2045      	movs	r0, #69	; 0x45
 c001652:	5625      	ldrsb	r5, [r4, r0]
 c001654:	000a      	movs	r2, r1
 c001656:	a901      	add	r1, sp, #4
 c001658:	0020      	movs	r0, r4
 c00165a:	f7ff ff3f 	bl	c0014dc <prvCopyDataToQueue>
 c00165e:	0006      	movs	r6, r0
 c001660:	2000      	movs	r0, #0
 c001662:	43c0      	mvns	r0, r0
 c001664:	4285      	cmp	r5, r0
 c001666:	d106      	bne.n	c001676 <prvNotifyQueueSetContainer+0x36>
 c001668:	6a60      	ldr	r0, [r4, #36]	; 0x24
 c00166a:	b138      	cbz	r0, c00167c <prvNotifyQueueSetContainer+0x3c>
 c00166c:	f7ff ff2a 	bl	c0014c4 <.text_26>
 c001670:	b120      	cbz	r0, c00167c <prvNotifyQueueSetContainer+0x3c>
 c001672:	2601      	movs	r6, #1
 c001674:	e002      	b.n	c00167c <prvNotifyQueueSetContainer+0x3c>
 c001676:	1c6d      	adds	r5, r5, #1
 c001678:	2045      	movs	r0, #69	; 0x45
 c00167a:	5425      	strb	r5, [r4, r0]
 c00167c:	0030      	movs	r0, r6
 c00167e:	bd76      	pop	{r1, r2, r4, r5, r6, pc}

0c001680 <?Veneer 19 (3) for SOCPS_SleepDeInit>:
 c001680:	b408      	push	{r3}
 c001682:	4b02      	ldr	r3, [pc, #8]	; (c00168c <?Veneer 19 (3) for SOCPS_SleepDeInit+0xc>)
 c001684:	469c      	mov	ip, r3
 c001686:	bc08      	pop	{r3}
 c001688:	4760      	bx	ip
 c00168a:	46c0      	nop			; (mov r8, r8)
 c00168c:	0008585b 	.word	0x0008585b

0c001690 <?Veneer 21 (3) for SOCPS_KM4Wake>:
 c001690:	b408      	push	{r3}
 c001692:	4b02      	ldr	r3, [pc, #8]	; (c00169c <?Veneer 21 (3) for SOCPS_KM4Wake+0xc>)
 c001694:	469c      	mov	ip, r3
 c001696:	bc08      	pop	{r3}
 c001698:	4760      	bx	ip
 c00169a:	46c0      	nop			; (mov r8, r8)
 c00169c:	00085711 	.word	0x00085711

0c0016a0 <?Veneer 23 (3) for SOCPS_SetWakeEvent>:
 c0016a0:	b408      	push	{r3}
 c0016a2:	4b02      	ldr	r3, [pc, #8]	; (c0016ac <?Veneer 23 (3) for SOCPS_SetWakeEvent+0xc>)
 c0016a4:	469c      	mov	ip, r3
 c0016a6:	bc08      	pop	{r3}
 c0016a8:	4760      	bx	ip
 c0016aa:	46c0      	nop			; (mov r8, r8)
 c0016ac:	0008593d 	.word	0x0008593d

0c0016b0 <?Veneer 24 (3) for SOCPS_ClearWakePin>:
 c0016b0:	b408      	push	{r3}
 c0016b2:	4b02      	ldr	r3, [pc, #8]	; (c0016bc <?Veneer 24 (3) for SOCPS_ClearWakePin+0xc>)
 c0016b4:	469c      	mov	ip, r3
 c0016b6:	bc08      	pop	{r3}
 c0016b8:	4760      	bx	ip
 c0016ba:	46c0      	nop			; (mov r8, r8)
 c0016bc:	00085971 	.word	0x00085971

0c0016c0 <?Veneer 25 (3) for SOCPS_ClearWakeEvent>:
 c0016c0:	b408      	push	{r3}
 c0016c2:	4b02      	ldr	r3, [pc, #8]	; (c0016cc <?Veneer 25 (3) for SOCPS_ClearWakeEvent+0xc>)
 c0016c4:	469c      	mov	ip, r3
 c0016c6:	bc08      	pop	{r3}
 c0016c8:	4760      	bx	ip
 c0016ca:	46c0      	nop			; (mov r8, r8)
 c0016cc:	00085983 	.word	0x00085983

0c0016d0 <?Veneer 28 (3) for SOCPS_AONWakeReason>:
 c0016d0:	b408      	push	{r3}
 c0016d2:	4b02      	ldr	r3, [pc, #8]	; (c0016dc <?Veneer 28 (3) for SOCPS_AONWakeReason+0xc>)
 c0016d4:	469c      	mov	ip, r3
 c0016d6:	bc08      	pop	{r3}
 c0016d8:	4760      	bx	ip
 c0016da:	46c0      	nop			; (mov r8, r8)
 c0016dc:	000854cb 	.word	0x000854cb

0c0016e0 <?Veneer 34 (3) for irq_register>:
 c0016e0:	b408      	push	{r3}
 c0016e2:	4b02      	ldr	r3, [pc, #8]	; (c0016ec <?Veneer 34 (3) for irq_register+0xc>)
 c0016e4:	469c      	mov	ip, r3
 c0016e6:	bc08      	pop	{r3}
 c0016e8:	4760      	bx	ip
 c0016ea:	46c0      	nop			; (mov r8, r8)
 c0016ec:	00005699 	.word	0x00005699

0c0016f0 <?Veneer 35 (3) for irq_enable>:
 c0016f0:	b408      	push	{r3}
 c0016f2:	4b02      	ldr	r3, [pc, #8]	; (c0016fc <?Veneer 35 (3) for irq_enable+0xc>)
 c0016f4:	469c      	mov	ip, r3
 c0016f6:	bc08      	pop	{r3}
 c0016f8:	4760      	bx	ip
 c0016fa:	46c0      	nop			; (mov r8, r8)
 c0016fc:	00005559 	.word	0x00005559

0c001700 <?Veneer 76 (3) for PAD_PullCtrl>:
 c001700:	b408      	push	{r3}
 c001702:	4b02      	ldr	r3, [pc, #8]	; (c00170c <?Veneer 76 (3) for PAD_PullCtrl+0xc>)
 c001704:	469c      	mov	ip, r3
 c001706:	bc08      	pop	{r3}
 c001708:	4760      	bx	ip
 c00170a:	46c0      	nop			; (mov r8, r8)
 c00170c:	00003685 	.word	0x00003685

0c001710 <?Veneer 78 (3) for IPC_IERGet>:
 c001710:	b408      	push	{r3}
 c001712:	4b02      	ldr	r3, [pc, #8]	; (c00171c <?Veneer 78 (3) for IPC_IERGet+0xc>)
 c001714:	469c      	mov	ip, r3
 c001716:	bc08      	pop	{r3}
 c001718:	4760      	bx	ip
 c00171a:	46c0      	nop			; (mov r8, r8)
 c00171c:	0000305b 	.word	0x0000305b

0c001720 <?Veneer 79 (3) for SOCPS_MMUBackup>:
 c001720:	b408      	push	{r3}
 c001722:	4b02      	ldr	r3, [pc, #8]	; (c00172c <?Veneer 79 (3) for SOCPS_MMUBackup+0xc>)
 c001724:	469c      	mov	ip, r3
 c001726:	bc08      	pop	{r3}
 c001728:	4760      	bx	ip
 c00172a:	46c0      	nop			; (mov r8, r8)
 c00172c:	000855b5 	.word	0x000855b5

0c001730 <?Veneer 80 (3) for LOGUART_WaitBusy>:
 c001730:	b408      	push	{r3}
 c001732:	4b02      	ldr	r3, [pc, #8]	; (c00173c <?Veneer 80 (3) for LOGUART_WaitBusy+0xc>)
 c001734:	469c      	mov	ip, r3
 c001736:	bc08      	pop	{r3}
 c001738:	4760      	bx	ip
 c00173a:	46c0      	nop			; (mov r8, r8)
 c00173c:	00003265 	.word	0x00003265

0c001740 <?Veneer 81 (3) for SOCPS_SleepPG_RAM>:
 c001740:	b408      	push	{r3}
 c001742:	4b02      	ldr	r3, [pc, #8]	; (c00174c <?Veneer 81 (3) for SOCPS_SleepPG_RAM+0xc>)
 c001744:	469c      	mov	ip, r3
 c001746:	bc08      	pop	{r3}
 c001748:	4760      	bx	ip
 c00174a:	46c0      	nop			; (mov r8, r8)
 c00174c:	00085afd 	.word	0x00085afd

0c001750 <?Veneer 82 (3) for IPC_IERSet>:
 c001750:	b408      	push	{r3}
 c001752:	4b02      	ldr	r3, [pc, #8]	; (c00175c <?Veneer 82 (3) for IPC_IERSet+0xc>)
 c001754:	469c      	mov	ip, r3
 c001756:	bc08      	pop	{r3}
 c001758:	4760      	bx	ip
 c00175a:	46c0      	nop			; (mov r8, r8)
 c00175c:	00003057 	.word	0x00003057

0c001760 <?Veneer 83 (3) for SOCPS_SNOOZE_Config>:
 c001760:	b408      	push	{r3}
 c001762:	4b02      	ldr	r3, [pc, #8]	; (c00176c <?Veneer 83 (3) for SOCPS_SNOOZE_Config+0xc>)
 c001764:	469c      	mov	ip, r3
 c001766:	bc08      	pop	{r3}
 c001768:	4760      	bx	ip
 c00176a:	46c0      	nop			; (mov r8, r8)
 c00176c:	000854b7 	.word	0x000854b7

0c001770 <?Veneer 84 (3) for Pinmux_Config>:
 c001770:	b408      	push	{r3}
 c001772:	4b02      	ldr	r3, [pc, #8]	; (c00177c <?Veneer 84 (3) for Pinmux_Config+0xc>)
 c001774:	469c      	mov	ip, r3
 c001776:	bc08      	pop	{r3}
 c001778:	4760      	bx	ip
 c00177a:	46c0      	nop			; (mov r8, r8)
 c00177c:	000036dd 	.word	0x000036dd

0c001780 <?Veneer 85 (3) for SOCPS_SetWakepin>:
 c001780:	b408      	push	{r3}
 c001782:	4b02      	ldr	r3, [pc, #8]	; (c00178c <?Veneer 85 (3) for SOCPS_SetWakepin+0xc>)
 c001784:	469c      	mov	ip, r3
 c001786:	bc08      	pop	{r3}
 c001788:	4760      	bx	ip
 c00178a:	46c0      	nop			; (mov r8, r8)
 c00178c:	00085563 	.word	0x00085563

0c001790 <SOCPS_vWFSSVCHandler>:
 c001790:	48b5      	ldr	r0, [pc, #724]	; (c001a68 <.text_89>)
 c001792:	6801      	ldr	r1, [r0, #0]
 c001794:	4608      	mov	r0, r1
 c001796:	c8f0      	ldmia	r0!, {r4, r5, r6, r7}
 c001798:	46a0      	mov	r8, r4
 c00179a:	46a9      	mov	r9, r5
 c00179c:	46b2      	mov	sl, r6
 c00179e:	46bb      	mov	fp, r7
 c0017a0:	c8f0      	ldmia	r0!, {r4, r5, r6, r7}
 c0017a2:	f380 8809 	msr	PSP, r0
 c0017a6:	4671      	mov	r1, lr
 c0017a8:	200d      	movs	r0, #13
 c0017aa:	4301      	orrs	r1, r0
 c0017ac:	4708      	bx	r1
 c0017ae:	4770      	bx	lr

0c0017b0 <SOCPS_NVICBackup>:
 c0017b0:	b430      	push	{r4, r5}
 c0017b2:	2100      	movs	r1, #0
 c0017b4:	4897      	ldr	r0, [pc, #604]	; (c001a14 <.text_84>)
 c0017b6:	4b98      	ldr	r3, [pc, #608]	; (c001a18 <.text_85>)
 c0017b8:	681a      	ldr	r2, [r3, #0]
 c0017ba:	67c2      	str	r2, [r0, #124]	; 0x7c
 c0017bc:	685a      	ldr	r2, [r3, #4]
 c0017be:	2480      	movs	r4, #128	; 0x80
 c0017c0:	5102      	str	r2, [r0, r4]
 c0017c2:	0002      	movs	r2, r0
 c0017c4:	3284      	adds	r2, #132	; 0x84
 c0017c6:	689b      	ldr	r3, [r3, #8]
 c0017c8:	6013      	str	r3, [r2, #0]
 c0017ca:	4b94      	ldr	r3, [pc, #592]	; (c001a1c <.text_86>)
 c0017cc:	681c      	ldr	r4, [r3, #0]
 c0017ce:	6644      	str	r4, [r0, #100]	; 0x64
 c0017d0:	685b      	ldr	r3, [r3, #4]
 c0017d2:	6683      	str	r3, [r0, #104]	; 0x68
 c0017d4:	4ba5      	ldr	r3, [pc, #660]	; (c001a6c <.text_90>)
 c0017d6:	681c      	ldr	r4, [r3, #0]
 c0017d8:	66c4      	str	r4, [r0, #108]	; 0x6c
 c0017da:	685b      	ldr	r3, [r3, #4]
 c0017dc:	6703      	str	r3, [r0, #112]	; 0x70
 c0017de:	25a8      	movs	r5, #168	; 0xa8
 c0017e0:	4ba3      	ldr	r3, [pc, #652]	; (c001a70 <.text_91>)
 c0017e2:	008c      	lsls	r4, r1, #2
 c0017e4:	591b      	ldr	r3, [r3, r4]
 c0017e6:	1844      	adds	r4, r0, r1
 c0017e8:	5563      	strb	r3, [r4, r5]
 c0017ea:	1c49      	adds	r1, r1, #1
 c0017ec:	2920      	cmp	r1, #32
 c0017ee:	dbf7      	blt.n	c0017e0 <SOCPS_NVICBackup+0x30>
 c0017f0:	49a0      	ldr	r1, [pc, #640]	; (c001a74 <.text_92>)
 c0017f2:	680b      	ldr	r3, [r1, #0]
 c0017f4:	6743      	str	r3, [r0, #116]	; 0x74
 c0017f6:	6849      	ldr	r1, [r1, #4]
 c0017f8:	6781      	str	r1, [r0, #120]	; 0x78
 c0017fa:	489f      	ldr	r0, [pc, #636]	; (c001a78 <.text_93>)
 c0017fc:	6800      	ldr	r0, [r0, #0]
 c0017fe:	6090      	str	r0, [r2, #8]
 c001800:	bc30      	pop	{r4, r5}
 c001802:	4770      	bx	lr

0c001804 <SOCPS_NVICReFill>:
 c001804:	b430      	push	{r4, r5}
 c001806:	2100      	movs	r1, #0
 c001808:	4b83      	ldr	r3, [pc, #524]	; (c001a18 <.text_85>)
 c00180a:	4882      	ldr	r0, [pc, #520]	; (c001a14 <.text_84>)
 c00180c:	6fc2      	ldr	r2, [r0, #124]	; 0x7c
 c00180e:	601a      	str	r2, [r3, #0]
 c001810:	2280      	movs	r2, #128	; 0x80
 c001812:	5882      	ldr	r2, [r0, r2]
 c001814:	605a      	str	r2, [r3, #4]
 c001816:	0002      	movs	r2, r0
 c001818:	3284      	adds	r2, #132	; 0x84
 c00181a:	6814      	ldr	r4, [r2, #0]
 c00181c:	609c      	str	r4, [r3, #8]
 c00181e:	4b95      	ldr	r3, [pc, #596]	; (c001a74 <.text_92>)
 c001820:	6f44      	ldr	r4, [r0, #116]	; 0x74
 c001822:	601c      	str	r4, [r3, #0]
 c001824:	6f84      	ldr	r4, [r0, #120]	; 0x78
 c001826:	605c      	str	r4, [r3, #4]
 c001828:	4b90      	ldr	r3, [pc, #576]	; (c001a6c <.text_90>)
 c00182a:	6ec4      	ldr	r4, [r0, #108]	; 0x6c
 c00182c:	601c      	str	r4, [r3, #0]
 c00182e:	6f04      	ldr	r4, [r0, #112]	; 0x70
 c001830:	605c      	str	r4, [r3, #4]
 c001832:	1843      	adds	r3, r0, r1
 c001834:	24a8      	movs	r4, #168	; 0xa8
 c001836:	5d1b      	ldrb	r3, [r3, r4]
 c001838:	4c8d      	ldr	r4, [pc, #564]	; (c001a70 <.text_91>)
 c00183a:	008d      	lsls	r5, r1, #2
 c00183c:	5163      	str	r3, [r4, r5]
 c00183e:	1c49      	adds	r1, r1, #1
 c001840:	2920      	cmp	r1, #32
 c001842:	dbf6      	blt.n	c001832 <SOCPS_NVICReFill+0x2e>
 c001844:	4975      	ldr	r1, [pc, #468]	; (c001a1c <.text_86>)
 c001846:	6e43      	ldr	r3, [r0, #100]	; 0x64
 c001848:	600b      	str	r3, [r1, #0]
 c00184a:	6e80      	ldr	r0, [r0, #104]	; 0x68
 c00184c:	6048      	str	r0, [r1, #4]
 c00184e:	6890      	ldr	r0, [r2, #8]
 c001850:	4989      	ldr	r1, [pc, #548]	; (c001a78 <.text_93>)
 c001852:	6008      	str	r0, [r1, #0]
 c001854:	bc30      	pop	{r4, r5}
 c001856:	4770      	bx	lr

0c001858 <SOCPS_MPUBackup>:
 c001858:	b410      	push	{r4}
 c00185a:	2200      	movs	r2, #0
 c00185c:	486d      	ldr	r0, [pc, #436]	; (c001a14 <.text_84>)
 c00185e:	0003      	movs	r3, r0
 c001860:	33c8      	adds	r3, #200	; 0xc8
 c001862:	4986      	ldr	r1, [pc, #536]	; (c001a7c <.text_94>)
 c001864:	680c      	ldr	r4, [r1, #0]
 c001866:	601c      	str	r4, [r3, #0]
 c001868:	6acc      	ldr	r4, [r1, #44]	; 0x2c
 c00186a:	605c      	str	r4, [r3, #4]
 c00186c:	6b0c      	ldr	r4, [r1, #48]	; 0x30
 c00186e:	609c      	str	r4, [r3, #8]
 c001870:	604a      	str	r2, [r1, #4]
 c001872:	0093      	lsls	r3, r2, #2
 c001874:	18c3      	adds	r3, r0, r3
 c001876:	33d4      	adds	r3, #212	; 0xd4
 c001878:	688c      	ldr	r4, [r1, #8]
 c00187a:	601c      	str	r4, [r3, #0]
 c00187c:	68cc      	ldr	r4, [r1, #12]
 c00187e:	611c      	str	r4, [r3, #16]
 c001880:	1c52      	adds	r2, r2, #1
 c001882:	2a04      	cmp	r2, #4
 c001884:	dbf4      	blt.n	c001870 <SOCPS_MPUBackup+0x18>
 c001886:	bc10      	pop	{r4}
 c001888:	4770      	bx	lr

0c00188a <SOCPS_MPUReFill>:
 c00188a:	b430      	push	{r4, r5}
 c00188c:	2300      	movs	r3, #0
 c00188e:	487b      	ldr	r0, [pc, #492]	; (c001a7c <.text_94>)
 c001890:	6003      	str	r3, [r0, #0]
 c001892:	4960      	ldr	r1, [pc, #384]	; (c001a14 <.text_84>)
 c001894:	000a      	movs	r2, r1
 c001896:	32c8      	adds	r2, #200	; 0xc8
 c001898:	6854      	ldr	r4, [r2, #4]
 c00189a:	62c4      	str	r4, [r0, #44]	; 0x2c
 c00189c:	6894      	ldr	r4, [r2, #8]
 c00189e:	6304      	str	r4, [r0, #48]	; 0x30
 c0018a0:	6043      	str	r3, [r0, #4]
 c0018a2:	009c      	lsls	r4, r3, #2
 c0018a4:	190c      	adds	r4, r1, r4
 c0018a6:	34d4      	adds	r4, #212	; 0xd4
 c0018a8:	6825      	ldr	r5, [r4, #0]
 c0018aa:	6085      	str	r5, [r0, #8]
 c0018ac:	6924      	ldr	r4, [r4, #16]
 c0018ae:	60c4      	str	r4, [r0, #12]
 c0018b0:	1c5b      	adds	r3, r3, #1
 c0018b2:	2b04      	cmp	r3, #4
 c0018b4:	dbf4      	blt.n	c0018a0 <SOCPS_MPUReFill+0x16>
 c0018b6:	6811      	ldr	r1, [r2, #0]
 c0018b8:	6001      	str	r1, [r0, #0]
 c0018ba:	bc30      	pop	{r4, r5}
 c0018bc:	4770      	bx	lr
	...

0c0018c0 <SOCPS_SleepPG>:
 c0018c0:	b5fe      	push	{r1, r2, r3, r4, r5, r6, r7, lr}
 c0018c2:	2600      	movs	r6, #0
 c0018c4:	0034      	movs	r4, r6
 c0018c6:	9600      	str	r6, [sp, #0]
 c0018c8:	4d6d      	ldr	r5, [pc, #436]	; (c001a80 <.text_95>)
 c0018ca:	68a8      	ldr	r0, [r5, #8]
 c0018cc:	2800      	cmp	r0, #0
 c0018ce:	d006      	beq.n	c0018de <SOCPS_SleepPG+0x1e>
 c0018d0:	486c      	ldr	r0, [pc, #432]	; (c001a84 <.text_96>)
 c0018d2:	6800      	ldr	r0, [r0, #0]
 c0018d4:	0380      	lsls	r0, r0, #14
 c0018d6:	d502      	bpl.n	c0018de <SOCPS_SleepPG+0x1e>
 c0018d8:	a051      	add	r0, pc, #324	; (adr r0, c001a20 <.text_87>)
 c0018da:	f7ff f83b 	bl	c000954 <?Veneer 15 (3) for DiagPrintf>
 c0018de:	2000      	movs	r0, #0
 c0018e0:	f000 fa14 	bl	c001d0c <SOCPS_DsleepWakeStatusSet>
 c0018e4:	f7ff faa8 	bl	c000e38 <pmu_exec_sleep_hook_funs>
 c0018e8:	9001      	str	r0, [sp, #4]
 c0018ea:	9801      	ldr	r0, [sp, #4]
 c0018ec:	281f      	cmp	r0, #31
 c0018ee:	d00d      	beq.n	c00190c <SOCPS_SleepPG+0x4c>
 c0018f0:	9801      	ldr	r0, [sp, #4]
 c0018f2:	f7ff fab3 	bl	c000e5c <pmu_exec_wakeup_hook_funs>
 c0018f6:	4863      	ldr	r0, [pc, #396]	; (c001a84 <.text_96>)
 c0018f8:	6800      	ldr	r0, [r0, #0]
 c0018fa:	0380      	lsls	r0, r0, #14
 c0018fc:	d503      	bpl.n	c001906 <SOCPS_SleepPG+0x46>
 c0018fe:	9901      	ldr	r1, [sp, #4]
 c001900:	4861      	ldr	r0, [pc, #388]	; (c001a88 <.text_97>)
 c001902:	f7ff f827 	bl	c000954 <?Veneer 15 (3) for DiagPrintf>
 c001906:	f7ff febb 	bl	c001680 <?Veneer 19 (3) for SOCPS_SleepDeInit>
 c00190a:	e081      	b.n	c001a10 <SOCPS_SleepPG+0x150>
 c00190c:	4f5f      	ldr	r7, [pc, #380]	; (c001a8c <.text_98>)
 c00190e:	6838      	ldr	r0, [r7, #0]
 c001910:	2180      	movs	r1, #128	; 0x80
 c001912:	0589      	lsls	r1, r1, #22
 c001914:	4301      	orrs	r1, r0
 c001916:	9100      	str	r1, [sp, #0]
 c001918:	9800      	ldr	r0, [sp, #0]
 c00191a:	6038      	str	r0, [r7, #0]
 c00191c:	4c5c      	ldr	r4, [pc, #368]	; (c001a90 <.text_99>)
 c00191e:	6026      	str	r6, [r4, #0]
 c001920:	4e3c      	ldr	r6, [pc, #240]	; (c001a14 <.text_84>)
 c001922:	485c      	ldr	r0, [pc, #368]	; (c001a94 <.text_100>)
 c001924:	f7ff fef4 	bl	c001710 <?Veneer 78 (3) for IPC_IERGet>
 c001928:	21a0      	movs	r1, #160	; 0xa0
 c00192a:	5070      	str	r0, [r6, r1]
 c00192c:	f7ff ff40 	bl	c0017b0 <SOCPS_NVICBackup>
 c001930:	f7ff ff92 	bl	c001858 <SOCPS_MPUBackup>
 c001934:	f7ff fef4 	bl	c001720 <?Veneer 79 (3) for SOCPS_MMUBackup>
 c001938:	f7ff fefa 	bl	c001730 <?Veneer 80 (3) for LOGUART_WaitBusy>
 c00193c:	4600      	mov	r0, r0
 c00193e:	6030      	str	r0, [r6, #0]
 c001940:	4608      	mov	r0, r1
 c001942:	6070      	str	r0, [r6, #4]
 c001944:	4610      	mov	r0, r2
 c001946:	60b0      	str	r0, [r6, #8]
 c001948:	4618      	mov	r0, r3
 c00194a:	60f0      	str	r0, [r6, #12]
 c00194c:	4620      	mov	r0, r4
 c00194e:	6130      	str	r0, [r6, #16]
 c001950:	4628      	mov	r0, r5
 c001952:	6170      	str	r0, [r6, #20]
 c001954:	4630      	mov	r0, r6
 c001956:	61b0      	str	r0, [r6, #24]
 c001958:	4638      	mov	r0, r7
 c00195a:	61f0      	str	r0, [r6, #28]
 c00195c:	4640      	mov	r0, r8
 c00195e:	6230      	str	r0, [r6, #32]
 c001960:	4648      	mov	r0, r9
 c001962:	6270      	str	r0, [r6, #36]	; 0x24
 c001964:	4650      	mov	r0, sl
 c001966:	62b0      	str	r0, [r6, #40]	; 0x28
 c001968:	4658      	mov	r0, fp
 c00196a:	62f0      	str	r0, [r6, #44]	; 0x2c
 c00196c:	4660      	mov	r0, ip
 c00196e:	6330      	str	r0, [r6, #48]	; 0x30
 c001970:	4668      	mov	r0, sp
 c001972:	6370      	str	r0, [r6, #52]	; 0x34
 c001974:	0030      	movs	r0, r6
 c001976:	3038      	adds	r0, #56	; 0x38
 c001978:	4671      	mov	r1, lr
 c00197a:	6001      	str	r1, [r0, #0]
 c00197c:	4679      	mov	r1, pc
 c00197e:	63f1      	str	r1, [r6, #60]	; 0x3c
 c001980:	f3ef 8103 	mrs	r1, PSR
 c001984:	6431      	str	r1, [r6, #64]	; 0x40
 c001986:	bf00      	nop
 c001988:	bf00      	nop
 c00198a:	6bf1      	ldr	r1, [r6, #60]	; 0x3c
 c00198c:	6001      	str	r1, [r0, #0]
 c00198e:	6b70      	ldr	r0, [r6, #52]	; 0x34
 c001990:	219c      	movs	r1, #156	; 0x9c
 c001992:	5070      	str	r0, [r6, r1]
 c001994:	6820      	ldr	r0, [r4, #0]
 c001996:	2801      	cmp	r0, #1
 c001998:	d00a      	beq.n	c0019b0 <SOCPS_SleepPG+0xf0>
 c00199a:	2001      	movs	r0, #1
 c00199c:	6020      	str	r0, [r4, #0]
 c00199e:	48b0      	ldr	r0, [pc, #704]	; (c001c60 <.text_102>)
 c0019a0:	6801      	ldr	r1, [r0, #0]
 c0019a2:	2280      	movs	r2, #128	; 0x80
 c0019a4:	4391      	bics	r1, r2
 c0019a6:	9100      	str	r1, [sp, #0]
 c0019a8:	9900      	ldr	r1, [sp, #0]
 c0019aa:	6001      	str	r1, [r0, #0]
 c0019ac:	f7ff fec8 	bl	c001740 <?Veneer 81 (3) for SOCPS_SleepPG_RAM>
 c0019b0:	48ab      	ldr	r0, [pc, #684]	; (c001c60 <.text_102>)
 c0019b2:	6801      	ldr	r1, [r0, #0]
 c0019b4:	2280      	movs	r2, #128	; 0x80
 c0019b6:	430a      	orrs	r2, r1
 c0019b8:	9200      	str	r2, [sp, #0]
 c0019ba:	9900      	ldr	r1, [sp, #0]
 c0019bc:	6001      	str	r1, [r0, #0]
 c0019be:	68e8      	ldr	r0, [r5, #12]
 c0019c0:	2800      	cmp	r0, #0
 c0019c2:	d002      	beq.n	c0019ca <SOCPS_SleepPG+0x10a>
 c0019c4:	2001      	movs	r0, #1
 c0019c6:	f000 fc01 	bl	c0021cc <SOCPS_OSC2M_Cmd>
 c0019ca:	6838      	ldr	r0, [r7, #0]
 c0019cc:	4da5      	ldr	r5, [pc, #660]	; (c001c64 <.text_103>)
 c0019ce:	4005      	ands	r5, r0
 c0019d0:	603d      	str	r5, [r7, #0]
 c0019d2:	20a4      	movs	r0, #164	; 0xa4
 c0019d4:	5830      	ldr	r0, [r6, r0]
 c0019d6:	49a4      	ldr	r1, [pc, #656]	; (c001c68 <.text_104>)
 c0019d8:	62c8      	str	r0, [r1, #44]	; 0x2c
 c0019da:	20a0      	movs	r0, #160	; 0xa0
 c0019dc:	5831      	ldr	r1, [r6, r0]
 c0019de:	482d      	ldr	r0, [pc, #180]	; (c001a94 <.text_100>)
 c0019e0:	f7ff feb6 	bl	c001750 <?Veneer 82 (3) for IPC_IERSet>
 c0019e4:	48c2      	ldr	r0, [pc, #776]	; (c001cf0 <.text_106>)
 c0019e6:	6800      	ldr	r0, [r0, #0]
 c0019e8:	60a0      	str	r0, [r4, #8]
 c0019ea:	f7ff fe71 	bl	c0016d0 <?Veneer 28 (3) for SOCPS_AONWakeReason>
 c0019ee:	6060      	str	r0, [r4, #4]
 c0019f0:	f7ff ff08 	bl	c001804 <SOCPS_NVICReFill>
 c0019f4:	f7ff ff49 	bl	c00188a <SOCPS_MPUReFill>
 c0019f8:	f000 fc6e 	bl	c0022d8 <pinmap_wake>
 c0019fc:	201f      	movs	r0, #31
 c0019fe:	f7ff fa2d 	bl	c000e5c <pmu_exec_wakeup_hook_funs>
 c001a02:	f7ff fe45 	bl	c001690 <?Veneer 21 (3) for SOCPS_KM4Wake>
 c001a06:	2801      	cmp	r0, #1
 c001a08:	d102      	bne.n	c001a10 <SOCPS_SleepPG+0x150>
 c001a0a:	2080      	movs	r0, #128	; 0x80
 c001a0c:	f000 fa8a 	bl	c001f24 <km4_set_wake_event>
 c001a10:	bdf7      	pop	{r0, r1, r2, r4, r5, r6, r7, pc}
	...

0c001a14 <.text_84>:
 c001a14:	0008b9e0 	.word	0x0008b9e0

0c001a18 <.text_85>:
 c001a18:	e000e010 	.word	0xe000e010

0c001a1c <.text_86>:
 c001a1c:	e000e100 	.word	0xe000e100

0c001a20 <.text_87>:
 c001a20:	434f530d 	.word	0x434f530d
 c001a24:	535f5350 	.word	0x535f5350
 c001a28:	7065656c 	.word	0x7065656c
 c001a2c:	0a204750 	.word	0x0a204750
 c001a30:	00000000 	.word	0x00000000

0c001a34 <SOCPS_InitSYSIRQ>:
 c001a34:	b580      	push	{r7, lr}
 c001a36:	48b2      	ldr	r0, [pc, #712]	; (c001d00 <.text_108>)
 c001a38:	49b2      	ldr	r1, [pc, #712]	; (c001d04 <.text_109>)
 c001a3a:	6048      	str	r0, [r1, #4]
 c001a3c:	48b2      	ldr	r0, [pc, #712]	; (c001d08 <.text_110>)
 c001a3e:	2100      	movs	r1, #0
 c001a40:	60c1      	str	r1, [r0, #12]
 c001a42:	6800      	ldr	r0, [r0, #0]
 c001a44:	b908      	cbnz	r0, c001a4a <SOCPS_InitSYSIRQ+0x16>
 c001a46:	f7ff fe3b 	bl	c0016c0 <?Veneer 25 (3) for SOCPS_ClearWakeEvent>
 c001a4a:	2101      	movs	r1, #1
 c001a4c:	2003      	movs	r0, #3
 c001a4e:	f7ff fe87 	bl	c001760 <?Veneer 83 (3) for SOCPS_SNOOZE_Config>
 c001a52:	2300      	movs	r3, #0
 c001a54:	2200      	movs	r2, #0
 c001a56:	2100      	movs	r1, #0
 c001a58:	48b1      	ldr	r0, [pc, #708]	; (c001d20 <.text_113>)
 c001a5a:	f7ff fe41 	bl	c0016e0 <?Veneer 34 (3) for irq_register>
 c001a5e:	2000      	movs	r0, #0
 c001a60:	f7ff fe46 	bl	c0016f0 <?Veneer 35 (3) for irq_enable>
 c001a64:	bd01      	pop	{r0, pc}
	...

0c001a68 <.text_89>:
 c001a68:	0008ba7c 	.word	0x0008ba7c

0c001a6c <.text_90>:
 c001a6c:	e000e180 	.word	0xe000e180

0c001a70 <.text_91>:
 c001a70:	e000e400 	.word	0xe000e400

0c001a74 <.text_92>:
 c001a74:	e000e200 	.word	0xe000e200

0c001a78 <.text_93>:
 c001a78:	e000ed08 	.word	0xe000ed08

0c001a7c <.text_94>:
 c001a7c:	e000ed94 	.word	0xe000ed94

0c001a80 <.text_95>:
 c001a80:	00086558 	.word	0x00086558

0c001a84 <.text_96>:
 c001a84:	000801cc 	.word	0x000801cc

0c001a88 <.text_97>:
 c001a88:	000858b0 	.word	0x000858b0

0c001a8c <.text_98>:
 c001a8c:	480003f8 	.word	0x480003f8

0c001a90 <.text_99>:
 c001a90:	0008baf4 	.word	0x0008baf4

0c001a94 <.text_100>:
 c001a94:	48006000 	.word	0x48006000

0c001a98 <SOCPS_SleepInit>:
 c001a98:	b5f8      	push	{r3, r4, r5, r6, r7, lr}
 c001a9a:	2200      	movs	r2, #0
 c001a9c:	4ca1      	ldr	r4, [pc, #644]	; (c001d24 <.text_114>)
 c001a9e:	68e0      	ldr	r0, [r4, #12]
 c001aa0:	b160      	cbz	r0, c001abc <SOCPS_SleepInit+0x24>
 c001aa2:	49a1      	ldr	r1, [pc, #644]	; (c001d28 <.text_115>)
 c001aa4:	6488      	str	r0, [r1, #72]	; 0x48
 c001aa6:	68a0      	ldr	r0, [r4, #8]
 c001aa8:	49a0      	ldr	r1, [pc, #640]	; (c001d2c <.text_116>)
 c001aaa:	6008      	str	r0, [r1, #0]
 c001aac:	2101      	movs	r1, #1
 c001aae:	6820      	ldr	r0, [r4, #0]
 c001ab0:	f7ff fdf6 	bl	c0016a0 <?Veneer 23 (3) for SOCPS_SetWakeEvent>
 c001ab4:	6860      	ldr	r0, [r4, #4]
 c001ab6:	499e      	ldr	r1, [pc, #632]	; (c001d30 <.text_117>)
 c001ab8:	63c8      	str	r0, [r1, #60]	; 0x3c
 c001aba:	bdf1      	pop	{r0, r4, r5, r6, r7, pc}
 c001abc:	489a      	ldr	r0, [pc, #616]	; (c001d28 <.text_115>)
 c001abe:	6c80      	ldr	r0, [r0, #72]	; 0x48
 c001ac0:	60e0      	str	r0, [r4, #12]
 c001ac2:	4b9c      	ldr	r3, [pc, #624]	; (c001d34 <.text_118>)
 c001ac4:	2700      	movs	r7, #0
 c001ac6:	43ff      	mvns	r7, r7
 c001ac8:	e00a      	b.n	c001ae0 <SOCPS_SleepInit+0x48>
 c001aca:	4385      	bics	r5, r0
 c001acc:	60e5      	str	r5, [r4, #12]
 c001ace:	e006      	b.n	c001ade <SOCPS_SleepInit+0x46>
 c001ad0:	1d1e      	adds	r6, r3, #4
 c001ad2:	5871      	ldr	r1, [r6, r1]
 c001ad4:	2901      	cmp	r1, #1
 c001ad6:	6800      	ldr	r0, [r0, #0]
 c001ad8:	d1f7      	bne.n	c001aca <SOCPS_SleepInit+0x32>
 c001ada:	4328      	orrs	r0, r5
 c001adc:	60e0      	str	r0, [r4, #12]
 c001ade:	1c52      	adds	r2, r2, #1
 c001ae0:	68e5      	ldr	r5, [r4, #12]
 c001ae2:	00d1      	lsls	r1, r2, #3
 c001ae4:	1858      	adds	r0, r3, r1
 c001ae6:	6806      	ldr	r6, [r0, #0]
 c001ae8:	42be      	cmp	r6, r7
 c001aea:	d1f1      	bne.n	c001ad0 <SOCPS_SleepInit+0x38>
 c001aec:	0668      	lsls	r0, r5, #25
 c001aee:	d409      	bmi.n	c001b04 <SOCPS_SleepInit+0x6c>
 c001af0:	2080      	movs	r0, #128	; 0x80
 c001af2:	0240      	lsls	r0, r0, #9
 c001af4:	4328      	orrs	r0, r5
 c001af6:	60e0      	str	r0, [r4, #12]
 c001af8:	68e0      	ldr	r0, [r4, #12]
 c001afa:	0581      	lsls	r1, r0, #22
 c001afc:	d505      	bpl.n	c001b0a <SOCPS_SleepInit+0x72>
 c001afe:	498e      	ldr	r1, [pc, #568]	; (c001d38 <.text_119>)
 c001b00:	4001      	ands	r1, r0
 c001b02:	e005      	b.n	c001b10 <SOCPS_SleepInit+0x78>
 c001b04:	488d      	ldr	r0, [pc, #564]	; (c001d3c <.text_120>)
 c001b06:	4028      	ands	r0, r5
 c001b08:	e7f5      	b.n	c001af6 <SOCPS_SleepInit+0x5e>
 c001b0a:	2180      	movs	r1, #128	; 0x80
 c001b0c:	0289      	lsls	r1, r1, #10
 c001b0e:	4301      	orrs	r1, r0
 c001b10:	60e1      	str	r1, [r4, #12]
 c001b12:	68e0      	ldr	r0, [r4, #12]
 c001b14:	4984      	ldr	r1, [pc, #528]	; (c001d28 <.text_115>)
 c001b16:	6488      	str	r0, [r1, #72]	; 0x48
 c001b18:	2000      	movs	r0, #0
 c001b1a:	6020      	str	r0, [r4, #0]
 c001b1c:	2600      	movs	r6, #0
 c001b1e:	4b88      	ldr	r3, [pc, #544]	; (c001d40 <.text_121>)
 c001b20:	463d      	mov	r5, r7
 c001b22:	e00a      	b.n	c001b3a <SOCPS_SleepInit+0xa2>
 c001b24:	4388      	bics	r0, r1
 c001b26:	e006      	b.n	c001b36 <SOCPS_SleepInit+0x9e>
 c001b28:	1d1f      	adds	r7, r3, #4
 c001b2a:	58ba      	ldr	r2, [r7, r2]
 c001b2c:	2a01      	cmp	r2, #1
 c001b2e:	6809      	ldr	r1, [r1, #0]
 c001b30:	d1f8      	bne.n	c001b24 <SOCPS_SleepInit+0x8c>
 c001b32:	4301      	orrs	r1, r0
 c001b34:	0008      	movs	r0, r1
 c001b36:	6020      	str	r0, [r4, #0]
 c001b38:	1c76      	adds	r6, r6, #1
 c001b3a:	00f2      	lsls	r2, r6, #3
 c001b3c:	1899      	adds	r1, r3, r2
 c001b3e:	6820      	ldr	r0, [r4, #0]
 c001b40:	680f      	ldr	r7, [r1, #0]
 c001b42:	42af      	cmp	r7, r5
 c001b44:	d1f0      	bne.n	c001b28 <SOCPS_SleepInit+0x90>
 c001b46:	2101      	movs	r1, #1
 c001b48:	f7ff fdaa 	bl	c0016a0 <?Veneer 23 (3) for SOCPS_SetWakeEvent>
 c001b4c:	2000      	movs	r0, #0
 c001b4e:	6060      	str	r0, [r4, #4]
 c001b50:	2600      	movs	r6, #0
 c001b52:	4b7c      	ldr	r3, [pc, #496]	; (c001d44 <.text_122>)
 c001b54:	e00a      	b.n	c001b6c <SOCPS_SleepInit+0xd4>
 c001b56:	4388      	bics	r0, r1
 c001b58:	e006      	b.n	c001b68 <SOCPS_SleepInit+0xd0>
 c001b5a:	1d1f      	adds	r7, r3, #4
 c001b5c:	58ba      	ldr	r2, [r7, r2]
 c001b5e:	2a01      	cmp	r2, #1
 c001b60:	6809      	ldr	r1, [r1, #0]
 c001b62:	d1f8      	bne.n	c001b56 <SOCPS_SleepInit+0xbe>
 c001b64:	4301      	orrs	r1, r0
 c001b66:	0008      	movs	r0, r1
 c001b68:	6060      	str	r0, [r4, #4]
 c001b6a:	1c76      	adds	r6, r6, #1
 c001b6c:	6860      	ldr	r0, [r4, #4]
 c001b6e:	00f2      	lsls	r2, r6, #3
 c001b70:	1899      	adds	r1, r3, r2
 c001b72:	680f      	ldr	r7, [r1, #0]
 c001b74:	42af      	cmp	r7, r5
 c001b76:	d1f0      	bne.n	c001b5a <SOCPS_SleepInit+0xc2>
 c001b78:	2101      	movs	r1, #1
 c001b7a:	f7ff f93d 	bl	c000df8 <?Veneer 54 (3) for SOCPS_SetWakeEventAON>
 c001b7e:	486b      	ldr	r0, [pc, #428]	; (c001d2c <.text_116>)
 c001b80:	6800      	ldr	r0, [r0, #0]
 c001b82:	60a0      	str	r0, [r4, #8]
 c001b84:	2500      	movs	r5, #0
 c001b86:	4b70      	ldr	r3, [pc, #448]	; (c001d48 <.text_123>)
 c001b88:	2700      	movs	r7, #0
 c001b8a:	43ff      	mvns	r7, r7
 c001b8c:	e00a      	b.n	c001ba4 <SOCPS_SleepInit+0x10c>
 c001b8e:	4388      	bics	r0, r1
 c001b90:	e006      	b.n	c001ba0 <SOCPS_SleepInit+0x108>
 c001b92:	1d1e      	adds	r6, r3, #4
 c001b94:	58b2      	ldr	r2, [r6, r2]
 c001b96:	2a01      	cmp	r2, #1
 c001b98:	6809      	ldr	r1, [r1, #0]
 c001b9a:	d1f8      	bne.n	c001b8e <SOCPS_SleepInit+0xf6>
 c001b9c:	4301      	orrs	r1, r0
 c001b9e:	0008      	movs	r0, r1
 c001ba0:	60a0      	str	r0, [r4, #8]
 c001ba2:	1c6d      	adds	r5, r5, #1
 c001ba4:	68a0      	ldr	r0, [r4, #8]
 c001ba6:	00ea      	lsls	r2, r5, #3
 c001ba8:	1899      	adds	r1, r3, r2
 c001baa:	680e      	ldr	r6, [r1, #0]
 c001bac:	42be      	cmp	r6, r7
 c001bae:	d1f0      	bne.n	c001b92 <SOCPS_SleepInit+0xfa>
 c001bb0:	495e      	ldr	r1, [pc, #376]	; (c001d2c <.text_116>)
 c001bb2:	6008      	str	r0, [r1, #0]
 c001bb4:	4a5c      	ldr	r2, [pc, #368]	; (c001d28 <.text_115>)
 c001bb6:	6816      	ldr	r6, [r2, #0]
 c001bb8:	2500      	movs	r5, #0
 c001bba:	4b64      	ldr	r3, [pc, #400]	; (c001d4c <.text_124>)
 c001bbc:	463c      	mov	r4, r7
 c001bbe:	e00a      	b.n	c001bd6 <SOCPS_SleepInit+0x13e>
 c001bc0:	6800      	ldr	r0, [r0, #0]
 c001bc2:	4386      	bics	r6, r0
 c001bc4:	e006      	b.n	c001bd4 <SOCPS_SleepInit+0x13c>
 c001bc6:	1d1f      	adds	r7, r3, #4
 c001bc8:	5879      	ldr	r1, [r7, r1]
 c001bca:	2901      	cmp	r1, #1
 c001bcc:	d1f8      	bne.n	c001bc0 <SOCPS_SleepInit+0x128>
 c001bce:	0031      	movs	r1, r6
 c001bd0:	6806      	ldr	r6, [r0, #0]
 c001bd2:	430e      	orrs	r6, r1
 c001bd4:	1c6d      	adds	r5, r5, #1
 c001bd6:	00e9      	lsls	r1, r5, #3
 c001bd8:	1858      	adds	r0, r3, r1
 c001bda:	6807      	ldr	r7, [r0, #0]
 c001bdc:	42a7      	cmp	r7, r4
 c001bde:	d1f2      	bne.n	c001bc6 <SOCPS_SleepInit+0x12e>
 c001be0:	6016      	str	r6, [r2, #0]
 c001be2:	4a53      	ldr	r2, [pc, #332]	; (c001d30 <.text_117>)
 c001be4:	6815      	ldr	r5, [r2, #0]
 c001be6:	2400      	movs	r4, #0
 c001be8:	4b59      	ldr	r3, [pc, #356]	; (c001d50 <.text_125>)
 c001bea:	e009      	b.n	c001c00 <SOCPS_SleepInit+0x168>
 c001bec:	43bd      	bics	r5, r7
 c001bee:	e006      	b.n	c001bfe <SOCPS_SleepInit+0x166>
 c001bf0:	1d1e      	adds	r6, r3, #4
 c001bf2:	5871      	ldr	r1, [r6, r1]
 c001bf4:	2901      	cmp	r1, #1
 c001bf6:	d1f9      	bne.n	c001bec <SOCPS_SleepInit+0x154>
 c001bf8:	0029      	movs	r1, r5
 c001bfa:	463d      	mov	r5, r7
 c001bfc:	430d      	orrs	r5, r1
 c001bfe:	1c64      	adds	r4, r4, #1
 c001c00:	00e1      	lsls	r1, r4, #3
 c001c02:	1858      	adds	r0, r3, r1
 c001c04:	2600      	movs	r6, #0
 c001c06:	43f6      	mvns	r6, r6
 c001c08:	6807      	ldr	r7, [r0, #0]
 c001c0a:	42b7      	cmp	r7, r6
 c001c0c:	d1f0      	bne.n	c001bf0 <SOCPS_SleepInit+0x158>
 c001c0e:	6015      	str	r5, [r2, #0]
 c001c10:	f7ff fd4e 	bl	c0016b0 <?Veneer 24 (3) for SOCPS_ClearWakePin>
 c001c14:	2400      	movs	r4, #0
 c001c16:	e019      	b.n	c001c4c <SOCPS_SleepInit+0x1b4>
 c001c18:	2102      	movs	r1, #2
 c001c1a:	e00c      	b.n	c001c36 <SOCPS_SleepInit+0x19e>
 c001c1c:	494d      	ldr	r1, [pc, #308]	; (c001d54 <.text_126>)
 c001c1e:	1d09      	adds	r1, r1, #4
 c001c20:	5808      	ldr	r0, [r1, r0]
 c001c22:	2801      	cmp	r0, #1
 c001c24:	d111      	bne.n	c001c4a <SOCPS_SleepInit+0x1b2>
 c001c26:	f000 f865 	bl	c001cf4 <.text_107>
 c001c2a:	180f      	adds	r7, r1, r0
 c001c2c:	7838      	ldrb	r0, [r7, #0]
 c001c2e:	68a9      	ldr	r1, [r5, #8]
 c001c30:	2900      	cmp	r1, #0
 c001c32:	d0f1      	beq.n	c001c18 <SOCPS_SleepInit+0x180>
 c001c34:	2101      	movs	r1, #1
 c001c36:	f7ff fd63 	bl	c001700 <?Veneer 76 (3) for PAD_PullCtrl>
 c001c3a:	211f      	movs	r1, #31
 c001c3c:	7838      	ldrb	r0, [r7, #0]
 c001c3e:	f7ff fd97 	bl	c001770 <?Veneer 84 (3) for Pinmux_Config>
 c001c42:	68a9      	ldr	r1, [r5, #8]
 c001c44:	0020      	movs	r0, r4
 c001c46:	f7ff fd9b 	bl	c001780 <?Veneer 85 (3) for SOCPS_SetWakepin>
 c001c4a:	1c64      	adds	r4, r4, #1
 c001c4c:	200c      	movs	r0, #12
 c001c4e:	4360      	muls	r0, r4
 c001c50:	4940      	ldr	r1, [pc, #256]	; (c001d54 <.text_126>)
 c001c52:	180d      	adds	r5, r1, r0
 c001c54:	6829      	ldr	r1, [r5, #0]
 c001c56:	42b1      	cmp	r1, r6
 c001c58:	d100      	bne.n	c001c5c <SOCPS_SleepInit+0x1c4>
 c001c5a:	e72e      	b.n	c001aba <SOCPS_SleepInit+0x22>
 c001c5c:	e7de      	b.n	c001c1c <SOCPS_SleepInit+0x184>
	...

0c001c60 <.text_102>:
 c001c60:	48000004 	.word	0x48000004

0c001c64 <.text_103>:
 c001c64:	dfffffff 	.word	0xdfffffff

0c001c68 <.text_104>:
 c001c68:	00080000 	.word	0x00080000

0c001c6c <SOCPS_DsleepInit>:
 c001c6c:	b5f8      	push	{r3, r4, r5, r6, r7, lr}
 c001c6e:	2400      	movs	r4, #0
 c001c70:	2600      	movs	r6, #0
 c001c72:	2100      	movs	r1, #0
 c001c74:	2080      	movs	r0, #128	; 0x80
 c001c76:	0580      	lsls	r0, r0, #22
 c001c78:	f7ff fd12 	bl	c0016a0 <?Veneer 23 (3) for SOCPS_SetWakeEvent>
 c001c7c:	2700      	movs	r7, #0
 c001c7e:	43ff      	mvns	r7, r7
 c001c80:	2000      	movs	r0, #0
 c001c82:	e009      	b.n	c001c98 <SOCPS_DsleepInit+0x2c>
 c001c84:	6809      	ldr	r1, [r1, #0]
 c001c86:	4388      	bics	r0, r1
 c001c88:	e005      	b.n	c001c96 <SOCPS_DsleepInit+0x2a>
 c001c8a:	684a      	ldr	r2, [r1, #4]
 c001c8c:	2a01      	cmp	r2, #1
 c001c8e:	d1f9      	bne.n	c001c84 <SOCPS_DsleepInit+0x18>
 c001c90:	0002      	movs	r2, r0
 c001c92:	6808      	ldr	r0, [r1, #0]
 c001c94:	4310      	orrs	r0, r2
 c001c96:	1c76      	adds	r6, r6, #1
 c001c98:	492f      	ldr	r1, [pc, #188]	; (c001d58 <.text_127>)
 c001c9a:	00f2      	lsls	r2, r6, #3
 c001c9c:	1889      	adds	r1, r1, r2
 c001c9e:	680a      	ldr	r2, [r1, #0]
 c001ca0:	42ba      	cmp	r2, r7
 c001ca2:	d1f2      	bne.n	c001c8a <SOCPS_DsleepInit+0x1e>
 c001ca4:	2101      	movs	r1, #1
 c001ca6:	f7ff f8a7 	bl	c000df8 <?Veneer 54 (3) for SOCPS_SetWakeEventAON>
 c001caa:	f7ff fd01 	bl	c0016b0 <?Veneer 24 (3) for SOCPS_ClearWakePin>
 c001cae:	e017      	b.n	c001ce0 <SOCPS_DsleepInit+0x74>
 c001cb0:	2102      	movs	r1, #2
 c001cb2:	e00a      	b.n	c001cca <SOCPS_DsleepInit+0x5e>
 c001cb4:	6868      	ldr	r0, [r5, #4]
 c001cb6:	2801      	cmp	r0, #1
 c001cb8:	d111      	bne.n	c001cde <SOCPS_DsleepInit+0x72>
 c001cba:	f000 f81b 	bl	c001cf4 <.text_107>
 c001cbe:	180e      	adds	r6, r1, r0
 c001cc0:	7830      	ldrb	r0, [r6, #0]
 c001cc2:	68a9      	ldr	r1, [r5, #8]
 c001cc4:	2900      	cmp	r1, #0
 c001cc6:	d0f3      	beq.n	c001cb0 <SOCPS_DsleepInit+0x44>
 c001cc8:	2101      	movs	r1, #1
 c001cca:	f7ff fd19 	bl	c001700 <?Veneer 76 (3) for PAD_PullCtrl>
 c001cce:	211f      	movs	r1, #31
 c001cd0:	7830      	ldrb	r0, [r6, #0]
 c001cd2:	f7ff fd4d 	bl	c001770 <?Veneer 84 (3) for Pinmux_Config>
 c001cd6:	68a9      	ldr	r1, [r5, #8]
 c001cd8:	0020      	movs	r0, r4
 c001cda:	f7ff fd51 	bl	c001780 <?Veneer 85 (3) for SOCPS_SetWakepin>
 c001cde:	1c64      	adds	r4, r4, #1
 c001ce0:	481c      	ldr	r0, [pc, #112]	; (c001d54 <.text_126>)
 c001ce2:	210c      	movs	r1, #12
 c001ce4:	4361      	muls	r1, r4
 c001ce6:	1845      	adds	r5, r0, r1
 c001ce8:	6828      	ldr	r0, [r5, #0]
 c001cea:	42b8      	cmp	r0, r7
 c001cec:	d1e2      	bne.n	c001cb4 <SOCPS_DsleepInit+0x48>
 c001cee:	bdf1      	pop	{r0, r4, r5, r6, r7, pc}

0c001cf0 <.text_106>:
 c001cf0:	48000304 	.word	0x48000304

0c001cf4 <.text_107>:
 c001cf4:	6828      	ldr	r0, [r5, #0]
 c001cf6:	4919      	ldr	r1, [pc, #100]	; (c001d5c <.text_128>)
 c001cf8:	0062      	lsls	r2, r4, #1
 c001cfa:	1912      	adds	r2, r2, r4
 c001cfc:	1889      	adds	r1, r1, r2
 c001cfe:	4770      	bx	lr

0c001d00 <.text_108>:
 c001d00:	00085601 	.word	0x00085601

0c001d04 <.text_109>:
 c001d04:	00085000 	.word	0x00085000

0c001d08 <.text_110>:
 c001d08:	480002f4 	.word	0x480002f4

0c001d0c <SOCPS_DsleepWakeStatusSet>:
 c001d0c:	4914      	ldr	r1, [pc, #80]	; (c001d60 <.text_129>)
 c001d0e:	2801      	cmp	r0, #1
 c001d10:	d000      	beq.n	c001d14 <SOCPS_DsleepWakeStatusSet+0x8>
 c001d12:	2000      	movs	r0, #0
 c001d14:	6008      	str	r0, [r1, #0]
 c001d16:	4770      	bx	lr

0c001d18 <SOCPS_DsleepWakeStatusGet>:
 c001d18:	4811      	ldr	r0, [pc, #68]	; (c001d60 <.text_129>)
 c001d1a:	6800      	ldr	r0, [r0, #0]
 c001d1c:	4770      	bx	lr
	...

0c001d20 <.text_113>:
 c001d20:	0008558d 	.word	0x0008558d

0c001d24 <.text_114>:
 c001d24:	0008bb08 	.word	0x0008bb08

0c001d28 <.text_115>:
 c001d28:	480002d8 	.word	0x480002d8

0c001d2c <.text_116>:
 c001d2c:	48000b08 	.word	0x48000b08

0c001d30 <.text_117>:
 c001d30:	4800001c 	.word	0x4800001c

0c001d34 <.text_118>:
 c001d34:	00086180 	.word	0x00086180

0c001d38 <.text_119>:
 c001d38:	fffdffff 	.word	0xfffdffff

0c001d3c <.text_120>:
 c001d3c:	fffeffff 	.word	0xfffeffff

0c001d40 <.text_121>:
 c001d40:	000861d8 	.word	0x000861d8

0c001d44 <.text_122>:
 c001d44:	00086240 	.word	0x00086240

0c001d48 <.text_123>:
 c001d48:	00086370 	.word	0x00086370

0c001d4c <.text_124>:
 c001d4c:	00086440 	.word	0x00086440

0c001d50 <.text_125>:
 c001d50:	000864f0 	.word	0x000864f0

0c001d54 <.text_126>:
 c001d54:	0008651c 	.word	0x0008651c

0c001d58 <.text_127>:
 c001d58:	000864b8 	.word	0x000864b8

0c001d5c <.text_128>:
 c001d5c:	00086510 	.word	0x00086510

0c001d60 <.text_129>:
 c001d60:	480002f4 	.word	0x480002f4

0c001d64 <?Veneer 26 (3) for SOCPS_AudioLDO>:
 c001d64:	b408      	push	{r3}
 c001d66:	4b02      	ldr	r3, [pc, #8]	; (c001d70 <?Veneer 26 (3) for SOCPS_AudioLDO+0xc>)
 c001d68:	469c      	mov	ip, r3
 c001d6a:	bc08      	pop	{r3}
 c001d6c:	4760      	bx	ip
 c001d6e:	46c0      	nop			; (mov r8, r8)
 c001d70:	00085993 	.word	0x00085993

0c001d74 <?Veneer 37 (3) for FLASH_ClockSwitch>:
 c001d74:	b408      	push	{r3}
 c001d76:	4b02      	ldr	r3, [pc, #8]	; (c001d80 <?Veneer 37 (3) for FLASH_ClockSwitch+0xc>)
 c001d78:	469c      	mov	ip, r3
 c001d7a:	bc08      	pop	{r3}
 c001d7c:	4760      	bx	ip
 c001d7e:	46c0      	nop			; (mov r8, r8)
 c001d80:	000850ad 	.word	0x000850ad

0c001d84 <?Veneer 44 (3) for SOCPS_DeepSleep_RAM>:
 c001d84:	b408      	push	{r3}
 c001d86:	4b02      	ldr	r3, [pc, #8]	; (c001d90 <?Veneer 44 (3) for SOCPS_DeepSleep_RAM+0xc>)
 c001d88:	469c      	mov	ip, r3
 c001d8a:	bc08      	pop	{r3}
 c001d8c:	4760      	bx	ip
 c001d8e:	46c0      	nop			; (mov r8, r8)
 c001d90:	00085c25 	.word	0x00085c25

0c001d94 <?Veneer 75 (3) for BOOT_ROM_CM4PON>:
 c001d94:	b408      	push	{r3}
 c001d96:	4b02      	ldr	r3, [pc, #8]	; (c001da0 <?Veneer 75 (3) for BOOT_ROM_CM4PON+0xc>)
 c001d98:	469c      	mov	ip, r3
 c001d9a:	bc08      	pop	{r3}
 c001d9c:	4760      	bx	ip
 c001d9e:	46c0      	nop			; (mov r8, r8)
 c001da0:	000043f9 	.word	0x000043f9

0c001da4 <km4_status_on>:
 c001da4:	487e      	ldr	r0, [pc, #504]	; (c001fa0 <.text_29>)
 c001da6:	6800      	ldr	r0, [r0, #0]
 c001da8:	2180      	movs	r1, #128	; 0x80
 c001daa:	0249      	lsls	r1, r1, #9
 c001dac:	4008      	ands	r0, r1
 c001dae:	d000      	beq.n	c001db2 <km4_status_on+0xe>
 c001db0:	2001      	movs	r0, #1
 c001db2:	4770      	bx	lr

0c001db4 <km4_pm_init>:
 c001db4:	4770      	bx	lr

0c001db6 <km4_boot_on>:
 c001db6:	b580      	push	{r7, lr}
 c001db8:	f000 f87c 	bl	c001eb4 <.text_19>
 c001dbc:	4879      	ldr	r0, [pc, #484]	; (c001fa4 <.text_30>)
 c001dbe:	6801      	ldr	r1, [r0, #0]
 c001dc0:	2280      	movs	r2, #128	; 0x80
 c001dc2:	0492      	lsls	r2, r2, #18
 c001dc4:	430a      	orrs	r2, r1
 c001dc6:	6002      	str	r2, [r0, #0]
 c001dc8:	48a6      	ldr	r0, [pc, #664]	; (c002064 <.text_33>)
 c001dca:	f7ff ffe3 	bl	c001d94 <?Veneer 75 (3) for BOOT_ROM_CM4PON>
 c001dce:	f000 fac9 	bl	c002364 <ipc_table_init>
 c001dd2:	bd01      	pop	{r0, pc}

0c001dd4 <km4_power_gate>:
 c001dd4:	4872      	ldr	r0, [pc, #456]	; (c001fa0 <.text_29>)
 c001dd6:	6800      	ldr	r0, [r0, #0]
 c001dd8:	03c0      	lsls	r0, r0, #15
 c001dda:	d400      	bmi.n	c001dde <km4_power_gate+0xa>
 c001ddc:	4770      	bx	lr
 c001dde:	b580      	push	{r7, lr}
 c001de0:	4871      	ldr	r0, [pc, #452]	; (c001fa8 <.text_31>)
 c001de2:	6880      	ldr	r0, [r0, #8]
 c001de4:	0100      	lsls	r0, r0, #4
 c001de6:	d502      	bpl.n	c001dee <km4_power_gate+0x1a>
 c001de8:	a0af      	add	r0, pc, #700	; (adr r0, c0020a8 <.text_51>)
 c001dea:	f7fe fdb3 	bl	c000954 <?Veneer 15 (3) for DiagPrintf>
 c001dee:	489e      	ldr	r0, [pc, #632]	; (c002068 <.text_34>)
 c001df0:	6800      	ldr	r0, [r0, #0]
 c001df2:	07c0      	lsls	r0, r0, #31
 c001df4:	d5fb      	bpl.n	c001dee <km4_power_gate+0x1a>
 c001df6:	489d      	ldr	r0, [pc, #628]	; (c00206c <.text_36>)
 c001df8:	f7ff ffcc 	bl	c001d94 <?Veneer 75 (3) for BOOT_ROM_CM4PON>
 c001dfc:	2003      	movs	r0, #3
 c001dfe:	f7ff f928 	bl	c001052 <pmu_release_wakelock>
 c001e02:	2000      	movs	r0, #0
 c001e04:	f7ff f925 	bl	c001052 <pmu_release_wakelock>
 c001e08:	bd01      	pop	{r0, pc}
	...

0c001e0c <km4_power_wake>:
 c001e0c:	4864      	ldr	r0, [pc, #400]	; (c001fa0 <.text_29>)
 c001e0e:	6800      	ldr	r0, [r0, #0]
 c001e10:	03c0      	lsls	r0, r0, #15
 c001e12:	d500      	bpl.n	c001e16 <km4_power_wake+0xa>
 c001e14:	4770      	bx	lr
 c001e16:	b580      	push	{r7, lr}
 c001e18:	4863      	ldr	r0, [pc, #396]	; (c001fa8 <.text_31>)
 c001e1a:	6880      	ldr	r0, [r0, #8]
 c001e1c:	0100      	lsls	r0, r0, #4
 c001e1e:	d502      	bpl.n	c001e26 <km4_power_wake+0x1a>
 c001e20:	a0a9      	add	r0, pc, #676	; (adr r0, c0020c8 <.text_52>)
 c001e22:	f7fe fd97 	bl	c000954 <?Veneer 15 (3) for DiagPrintf>
 c001e26:	f000 f845 	bl	c001eb4 <.text_19>
 c001e2a:	4891      	ldr	r0, [pc, #580]	; (c002070 <.text_37>)
 c001e2c:	e0a2      	b.n	c001f74 <.text_26>
	...

0c001e30 <km4_clock_gate>:
 c001e30:	485b      	ldr	r0, [pc, #364]	; (c001fa0 <.text_29>)
 c001e32:	6800      	ldr	r0, [r0, #0]
 c001e34:	03c0      	lsls	r0, r0, #15
 c001e36:	d400      	bmi.n	c001e3a <km4_clock_gate+0xa>
 c001e38:	4770      	bx	lr
 c001e3a:	b538      	push	{r3, r4, r5, lr}
 c001e3c:	f000 f834 	bl	c001ea8 <.text_18>
 c001e40:	d003      	beq.n	c001e4a <km4_clock_gate+0x1a>
 c001e42:	bf00      	nop
 c001e44:	a0a8      	add	r0, pc, #672	; (adr r0, c0020e8 <.text_53>)
 c001e46:	f7fe fd85 	bl	c000954 <?Veneer 15 (3) for DiagPrintf>
 c001e4a:	4887      	ldr	r0, [pc, #540]	; (c002068 <.text_34>)
 c001e4c:	6800      	ldr	r0, [r0, #0]
 c001e4e:	07c0      	lsls	r0, r0, #31
 c001e50:	d5fb      	bpl.n	c001e4a <km4_clock_gate+0x1a>
 c001e52:	4888      	ldr	r0, [pc, #544]	; (c002074 <.text_38>)
 c001e54:	f7ff ff9e 	bl	c001d94 <?Veneer 75 (3) for BOOT_ROM_CM4PON>
 c001e58:	68a8      	ldr	r0, [r5, #8]
 c001e5a:	4004      	ands	r4, r0
 c001e5c:	d003      	beq.n	c001e66 <km4_clock_gate+0x36>
 c001e5e:	bf00      	nop
 c001e60:	a0a9      	add	r0, pc, #676	; (adr r0, c002108 <.text_54>)
 c001e62:	f7fe fd77 	bl	c000954 <?Veneer 15 (3) for DiagPrintf>
 c001e66:	2003      	movs	r0, #3
 c001e68:	f7ff f8f3 	bl	c001052 <pmu_release_wakelock>
 c001e6c:	2000      	movs	r0, #0
 c001e6e:	f7ff f8f0 	bl	c001052 <pmu_release_wakelock>
 c001e72:	bd31      	pop	{r0, r4, r5, pc}

0c001e74 <km4_clock_on>:
 c001e74:	484a      	ldr	r0, [pc, #296]	; (c001fa0 <.text_29>)
 c001e76:	6800      	ldr	r0, [r0, #0]
 c001e78:	03c0      	lsls	r0, r0, #15
 c001e7a:	d500      	bpl.n	c001e7e <km4_clock_on+0xa>
 c001e7c:	4770      	bx	lr
 c001e7e:	b538      	push	{r3, r4, r5, lr}
 c001e80:	f000 f812 	bl	c001ea8 <.text_18>
 c001e84:	d003      	beq.n	c001e8e <km4_clock_on+0x1a>
 c001e86:	bf00      	nop
 c001e88:	a0a7      	add	r0, pc, #668	; (adr r0, c002128 <.text_55>)
 c001e8a:	f7fe fd63 	bl	c000954 <?Veneer 15 (3) for DiagPrintf>
 c001e8e:	f000 f811 	bl	c001eb4 <.text_19>
 c001e92:	4879      	ldr	r0, [pc, #484]	; (c002078 <.text_39>)
 c001e94:	f7ff ff7e 	bl	c001d94 <?Veneer 75 (3) for BOOT_ROM_CM4PON>
 c001e98:	bf40      	sev
 c001e9a:	68a8      	ldr	r0, [r5, #8]
 c001e9c:	4004      	ands	r4, r0
 c001e9e:	d002      	beq.n	c001ea6 <km4_clock_on+0x32>
 c001ea0:	a0a9      	add	r0, pc, #676	; (adr r0, c002148 <.text_56>)
 c001ea2:	f7fe fd57 	bl	c000954 <?Veneer 15 (3) for DiagPrintf>
 c001ea6:	bd31      	pop	{r0, r4, r5, pc}

0c001ea8 <.text_18>:
 c001ea8:	2480      	movs	r4, #128	; 0x80
 c001eaa:	0524      	lsls	r4, r4, #20
 c001eac:	4d3e      	ldr	r5, [pc, #248]	; (c001fa8 <.text_31>)
 c001eae:	68a8      	ldr	r0, [r5, #8]
 c001eb0:	4020      	ands	r0, r4
 c001eb2:	4770      	bx	lr

0c001eb4 <.text_19>:
 c001eb4:	2003      	movs	r0, #3
 c001eb6:	f7ff b8c5 	b.w	c001044 <pmu_acquire_wakelock>

0c001eba <km4_suspend>:
 c001eba:	b538      	push	{r3, r4, r5, lr}
 c001ebc:	0004      	movs	r4, r0
 c001ebe:	2003      	movs	r0, #3
 c001ec0:	f000 fa9c 	bl	c0023fc <ipc_get_message>
 c001ec4:	b130      	cbz	r0, c001ed4 <km4_suspend+0x1a>
 c001ec6:	6845      	ldr	r5, [r0, #4]
 c001ec8:	b125      	cbz	r5, c001ed4 <km4_suspend+0x1a>
 c001eca:	f7fe fab6 	bl	c00043a <xTaskGetTickCount>
 c001ece:	1940      	adds	r0, r0, r5
 c001ed0:	496a      	ldr	r1, [pc, #424]	; (c00207c <.text_40>)
 c001ed2:	6088      	str	r0, [r1, #8]
 c001ed4:	2c01      	cmp	r4, #1
 c001ed6:	d102      	bne.n	c001ede <km4_suspend+0x24>
 c001ed8:	f7ff ffaa 	bl	c001e30 <km4_clock_gate>
 c001edc:	e001      	b.n	c001ee2 <km4_suspend+0x28>
 c001ede:	f7ff ff79 	bl	c001dd4 <km4_power_gate>
 c001ee2:	2001      	movs	r0, #1
 c001ee4:	bd32      	pop	{r1, r4, r5, pc}

0c001ee6 <km4_wake_event_update>:
 c001ee6:	b510      	push	{r4, lr}
 c001ee8:	f7fe faa7 	bl	c00043a <xTaskGetTickCount>
 c001eec:	4c63      	ldr	r4, [pc, #396]	; (c00207c <.text_40>)
 c001eee:	68a1      	ldr	r1, [r4, #8]
 c001ef0:	4288      	cmp	r0, r1
 c001ef2:	d306      	bcc.n	c001f02 <km4_wake_event_update+0x1c>
 c001ef4:	68e0      	ldr	r0, [r4, #12]
 c001ef6:	2101      	movs	r1, #1
 c001ef8:	4301      	orrs	r1, r0
 c001efa:	60e1      	str	r1, [r4, #12]
 c001efc:	2000      	movs	r0, #0
 c001efe:	43c0      	mvns	r0, r0
 c001f00:	60a0      	str	r0, [r4, #8]
 c001f02:	485f      	ldr	r0, [pc, #380]	; (c002080 <.text_41>)
 c001f04:	f000 fac0 	bl	c002488 <KeyScan_GetINT>
 c001f08:	b118      	cbz	r0, c001f12 <km4_wake_event_update+0x2c>
 c001f0a:	68e0      	ldr	r0, [r4, #12]
 c001f0c:	2120      	movs	r1, #32
 c001f0e:	4301      	orrs	r1, r0
 c001f10:	60e1      	str	r1, [r4, #12]
 c001f12:	485c      	ldr	r0, [pc, #368]	; (c002084 <.text_42>)
 c001f14:	f000 fad4 	bl	c0024c0 <CapTouch_GetISR>
 c001f18:	b118      	cbz	r0, c001f22 <km4_wake_event_update+0x3c>
 c001f1a:	68e0      	ldr	r0, [r4, #12]
 c001f1c:	2140      	movs	r1, #64	; 0x40
 c001f1e:	4301      	orrs	r1, r0
 c001f20:	60e1      	str	r1, [r4, #12]
 c001f22:	bd10      	pop	{r4, pc}

0c001f24 <km4_set_wake_event>:
 c001f24:	4955      	ldr	r1, [pc, #340]	; (c00207c <.text_40>)
 c001f26:	68ca      	ldr	r2, [r1, #12]
 c001f28:	4310      	orrs	r0, r2
 c001f2a:	60c8      	str	r0, [r1, #12]
 c001f2c:	4770      	bx	lr

0c001f2e <km4_get_wake_event>:
 c001f2e:	4853      	ldr	r0, [pc, #332]	; (c00207c <.text_40>)
 c001f30:	68c0      	ldr	r0, [r0, #12]
 c001f32:	4770      	bx	lr

0c001f34 <km4_resume>:
 c001f34:	b510      	push	{r4, lr}
 c001f36:	481a      	ldr	r0, [pc, #104]	; (c001fa0 <.text_29>)
 c001f38:	6800      	ldr	r0, [r0, #0]
 c001f3a:	4c50      	ldr	r4, [pc, #320]	; (c00207c <.text_40>)
 c001f3c:	03c0      	lsls	r0, r0, #15
 c001f3e:	d40f      	bmi.n	c001f60 <km4_resume+0x2c>
 c001f40:	f7ff ffb8 	bl	c001eb4 <.text_19>
 c001f44:	7820      	ldrb	r0, [r4, #0]
 c001f46:	2801      	cmp	r0, #1
 c001f48:	d102      	bne.n	c001f50 <km4_resume+0x1c>
 c001f4a:	f7ff ff93 	bl	c001e74 <km4_clock_on>
 c001f4e:	e001      	b.n	c001f54 <km4_resume+0x20>
 c001f50:	f7ff ff5c 	bl	c001e0c <km4_power_wake>
 c001f54:	68e0      	ldr	r0, [r4, #12]
 c001f56:	494c      	ldr	r1, [pc, #304]	; (c002088 <.text_43>)
 c001f58:	6008      	str	r0, [r1, #0]
 c001f5a:	2001      	movs	r0, #1
 c001f5c:	f7ff ff02 	bl	c001d64 <?Veneer 26 (3) for SOCPS_AudioLDO>
 c001f60:	2000      	movs	r0, #0
 c001f62:	60e0      	str	r0, [r4, #12]
 c001f64:	bd10      	pop	{r4, pc}

0c001f66 <km4_flash_highspeed_suspend>:
 c001f66:	b580      	push	{r7, lr}
 c001f68:	0001      	movs	r1, r0
 c001f6a:	f240 2000 	movw	r0, #512	; 0x200
 c001f6e:	f7ff ff01 	bl	c001d74 <?Veneer 37 (3) for FLASH_ClockSwitch>
 c001f72:	4846      	ldr	r0, [pc, #280]	; (c00208c <.text_44>)

0c001f74 <.text_26>:
 c001f74:	f7ff ff0e 	bl	c001d94 <?Veneer 75 (3) for BOOT_ROM_CM4PON>
 c001f78:	bd01      	pop	{r0, pc}

0c001f7a <km4_flash_highspeed_init>:
 c001f7a:	b580      	push	{r7, lr}
 c001f7c:	4844      	ldr	r0, [pc, #272]	; (c002090 <.text_45>)
 c001f7e:	f7ff ff09 	bl	c001d94 <?Veneer 75 (3) for BOOT_ROM_CM4PON>
 c001f82:	f000 fe99 	bl	c002cb8 <flash_operation_config>
 c001f86:	bd01      	pop	{r0, pc}

0c001f88 <km4_flash_highspeed_resume>:
 c001f88:	b510      	push	{r4, lr}
 c001f8a:	0004      	movs	r4, r0
 c001f8c:	4840      	ldr	r0, [pc, #256]	; (c002090 <.text_45>)
 c001f8e:	f7ff ff01 	bl	c001d94 <?Veneer 75 (3) for BOOT_ROM_CM4PON>
 c001f92:	0021      	movs	r1, r4
 c001f94:	f240 4000 	movw	r0, #1024	; 0x400
 c001f98:	f7ff feec 	bl	c001d74 <?Veneer 37 (3) for FLASH_ClockSwitch>
 c001f9c:	bd10      	pop	{r4, pc}
	...

0c001fa0 <.text_29>:
 c001fa0:	4800021c 	.word	0x4800021c

0c001fa4 <.text_30>:
 c001fa4:	480003f8 	.word	0x480003f8

0c001fa8 <.text_31>:
 c001fa8:	000801cc 	.word	0x000801cc

0c001fac <km4_tickless_ipc_int>:
 c001fac:	b538      	push	{r3, r4, r5, lr}
 c001fae:	2003      	movs	r0, #3
 c001fb0:	f7ff fb9e 	bl	c0016f0 <?Veneer 35 (3) for irq_enable>
 c001fb4:	2000      	movs	r0, #0
 c001fb6:	4937      	ldr	r1, [pc, #220]	; (c002094 <.text_46>)
 c001fb8:	6008      	str	r0, [r1, #0]
 c001fba:	2003      	movs	r0, #3
 c001fbc:	f000 fa1e 	bl	c0023fc <ipc_get_message>
 c001fc0:	0004      	movs	r4, r0
 c001fc2:	2108      	movs	r1, #8
 c001fc4:	4b34      	ldr	r3, [pc, #208]	; (c002098 <.text_47>)
 c001fc6:	681b      	ldr	r3, [r3, #0]
 c001fc8:	03db      	lsls	r3, r3, #15
 c001fca:	d515      	bpl.n	c001ff8 <km4_tickless_ipc_int+0x4c>
 c001fcc:	06c3      	lsls	r3, r0, #27
 c001fce:	d006      	beq.n	c001fde <km4_tickless_ipc_int+0x32>
 c001fd0:	0960      	lsrs	r0, r4, #5
 c001fd2:	0140      	lsls	r0, r0, #5
 c001fd4:	1de2      	adds	r2, r4, #7
 c001fd6:	0951      	lsrs	r1, r2, #5
 c001fd8:	1c49      	adds	r1, r1, #1
 c001fda:	0149      	lsls	r1, r1, #5
 c001fdc:	1a09      	subs	r1, r1, r0
 c001fde:	f3bf 8f4f 	dsb	sy
 c001fe2:	4a2e      	ldr	r2, [pc, #184]	; (c00209c <.text_48>)
 c001fe4:	e002      	b.n	c001fec <km4_tickless_ipc_int+0x40>
 c001fe6:	6010      	str	r0, [r2, #0]
 c001fe8:	3020      	adds	r0, #32
 c001fea:	3920      	subs	r1, #32
 c001fec:	2901      	cmp	r1, #1
 c001fee:	dafa      	bge.n	c001fe6 <km4_tickless_ipc_int+0x3a>
 c001ff0:	f3bf 8f4f 	dsb	sy
 c001ff4:	f3bf 8f6f 	isb	sy
 c001ff8:	7820      	ldrb	r0, [r4, #0]
 c001ffa:	b158      	cbz	r0, c002014 <km4_tickless_ipc_int+0x68>
 c001ffc:	2000      	movs	r0, #0
 c001ffe:	f7fe fee3 	bl	c000dc8 <?Veneer 22 (3) for SOCPS_AONTimerCmd>
 c002002:	6860      	ldr	r0, [r4, #4]
 c002004:	b120      	cbz	r0, c002010 <km4_tickless_ipc_int+0x64>
 c002006:	f7fe feef 	bl	c000de8 <?Veneer 43 (3) for SOCPS_AONTimer>
 c00200a:	2001      	movs	r0, #1
 c00200c:	f7fe fedc 	bl	c000dc8 <?Veneer 22 (3) for SOCPS_AONTimerCmd>
 c002010:	f7ff feb8 	bl	c001d84 <?Veneer 44 (3) for SOCPS_DeepSleep_RAM>
 c002014:	4d19      	ldr	r5, [pc, #100]	; (c00207c <.text_40>)
 c002016:	7860      	ldrb	r0, [r4, #1]
 c002018:	7028      	strb	r0, [r5, #0]
 c00201a:	7860      	ldrb	r0, [r4, #1]
 c00201c:	b110      	cbz	r0, c002024 <km4_tickless_ipc_int+0x78>
 c00201e:	2801      	cmp	r0, #1
 c002020:	d00b      	beq.n	c00203a <km4_tickless_ipc_int+0x8e>
 c002022:	e012      	b.n	c00204a <km4_tickless_ipc_int+0x9e>
 c002024:	f7ff ff49 	bl	c001eba <km4_suspend>
 c002028:	2801      	cmp	r0, #1
 c00202a:	d116      	bne.n	c00205a <km4_tickless_ipc_int+0xae>
 c00202c:	481c      	ldr	r0, [pc, #112]	; (c0020a0 <.text_49>)
 c00202e:	6801      	ldr	r1, [r0, #0]
 c002030:	2280      	movs	r2, #128	; 0x80
 c002032:	0452      	lsls	r2, r2, #17
 c002034:	430a      	orrs	r2, r1
 c002036:	6002      	str	r2, [r0, #0]
 c002038:	e00f      	b.n	c00205a <km4_tickless_ipc_int+0xae>
 c00203a:	f7ff ff3e 	bl	c001eba <km4_suspend>
 c00203e:	2801      	cmp	r0, #1
 c002040:	d10b      	bne.n	c00205a <km4_tickless_ipc_int+0xae>
 c002042:	2002      	movs	r0, #2
 c002044:	f7fe ff1c 	bl	c000e80 <pmu_set_sysactive_time>
 c002048:	e007      	b.n	c00205a <km4_tickless_ipc_int+0xae>
 c00204a:	4816      	ldr	r0, [pc, #88]	; (c0020a4 <.text_50>)
 c00204c:	6800      	ldr	r0, [r0, #0]
 c00204e:	0380      	lsls	r0, r0, #14
 c002050:	d503      	bpl.n	c00205a <km4_tickless_ipc_int+0xae>
 c002052:	bf00      	nop
 c002054:	a044      	add	r0, pc, #272	; (adr r0, c002168 <.text_57>)
 c002056:	f7fe fc7d 	bl	c000954 <?Veneer 15 (3) for DiagPrintf>
 c00205a:	f7fe fed5 	bl	c000e08 <?Veneer 55 (3) for SYSTIMER_TickGet>
 c00205e:	6068      	str	r0, [r5, #4]
 c002060:	bd31      	pop	{r0, r4, r5, pc}
	...

0c002064 <.text_33>:
 c002064:	00085e80 	.word	0x00085e80

0c002068 <.text_34>:
 c002068:	4000000c 	.word	0x4000000c

0c00206c <.text_36>:
 c00206c:	00086050 	.word	0x00086050

0c002070 <.text_37>:
 c002070:	000860c0 	.word	0x000860c0

0c002074 <.text_38>:
 c002074:	00085f90 	.word	0x00085f90

0c002078 <.text_39>:
 c002078:	00085ff0 	.word	0x00085ff0

0c00207c <.text_40>:
 c00207c:	00085d60 	.word	0x00085d60

0c002080 <.text_41>:
 c002080:	4800a000 	.word	0x4800a000

0c002084 <.text_42>:
 c002084:	4801c000 	.word	0x4801c000

0c002088 <.text_43>:
 c002088:	4000012c 	.word	0x4000012c

0c00208c <.text_44>:
 c00208c:	00085e30 	.word	0x00085e30

0c002090 <.text_45>:
 c002090:	00085d70 	.word	0x00085d70

0c002094 <.text_46>:
 c002094:	48006020 	.word	0x48006020

0c002098 <.text_47>:
 c002098:	e000ed14 	.word	0xe000ed14

0c00209c <.text_48>:
 c00209c:	e000ef5c 	.word	0xe000ef5c

0c0020a0 <.text_49>:
 c0020a0:	480003f8 	.word	0x480003f8

0c0020a4 <.text_50>:
 c0020a4:	000801cc 	.word	0x000801cc

0c0020a8 <.text_51>:
 c0020a8:	444f4d5b 	.word	0x444f4d5b
 c0020ac:	5f454c55 	.word	0x5f454c55
 c0020b0:	2d344d4b 	.word	0x2d344d4b
 c0020b4:	4556454c 	.word	0x4556454c
 c0020b8:	4e495f4c 	.word	0x4e495f4c
 c0020bc:	3a5d4f46 	.word	0x3a5d4f46
 c0020c0:	0a47344d 	.word	0x0a47344d
 c0020c4:	00000000 	.word	0x00000000

0c0020c8 <.text_52>:
 c0020c8:	444f4d5b 	.word	0x444f4d5b
 c0020cc:	5f454c55 	.word	0x5f454c55
 c0020d0:	2d344d4b 	.word	0x2d344d4b
 c0020d4:	4556454c 	.word	0x4556454c
 c0020d8:	4e495f4c 	.word	0x4e495f4c
 c0020dc:	3a5d4f46 	.word	0x3a5d4f46
 c0020e0:	0a57344d 	.word	0x0a57344d
 c0020e4:	00000000 	.word	0x00000000

0c0020e8 <.text_53>:
 c0020e8:	444f4d5b 	.word	0x444f4d5b
 c0020ec:	5f454c55 	.word	0x5f454c55
 c0020f0:	2d344d4b 	.word	0x2d344d4b
 c0020f4:	4556454c 	.word	0x4556454c
 c0020f8:	4e495f4c 	.word	0x4e495f4c
 c0020fc:	3a5d4f46 	.word	0x3a5d4f46
 c002100:	4743344d 	.word	0x4743344d
 c002104:	000a      	.short	0x000a
	...

0c002108 <.text_54>:
 c002108:	444f4d5b 	.word	0x444f4d5b
 c00210c:	5f454c55 	.word	0x5f454c55
 c002110:	2d344d4b 	.word	0x2d344d4b
 c002114:	4556454c 	.word	0x4556454c
 c002118:	4e495f4c 	.word	0x4e495f4c
 c00211c:	3a5d4f46 	.word	0x3a5d4f46
 c002120:	4743344d 	.word	0x4743344d
 c002124:	0a2d      	.short	0x0a2d
	...

0c002128 <.text_55>:
 c002128:	444f4d5b 	.word	0x444f4d5b
 c00212c:	5f454c55 	.word	0x5f454c55
 c002130:	2d344d4b 	.word	0x2d344d4b
 c002134:	4556454c 	.word	0x4556454c
 c002138:	4e495f4c 	.word	0x4e495f4c
 c00213c:	3a5d4f46 	.word	0x3a5d4f46
 c002140:	5743344d 	.word	0x5743344d
 c002144:	000a      	.short	0x000a
	...

0c002148 <.text_56>:
 c002148:	444f4d5b 	.word	0x444f4d5b
 c00214c:	5f454c55 	.word	0x5f454c55
 c002150:	2d344d4b 	.word	0x2d344d4b
 c002154:	4556454c 	.word	0x4556454c
 c002158:	4e495f4c 	.word	0x4e495f4c
 c00215c:	3a5d4f46 	.word	0x3a5d4f46
 c002160:	5743344d 	.word	0x5743344d
 c002164:	0a2d      	.short	0x0a2d
	...

0c002168 <.text_57>:
 c002168:	6b6e750d 	.word	0x6b6e750d
 c00216c:	20776f6e 	.word	0x20776f6e
 c002170:	65656c73 	.word	0x65656c73
 c002174:	79742070 	.word	0x79742070
 c002178:	000a6570 	.word	0x000a6570

0c00217c <__aeabi_memcpy4>:
 c00217c:	b470      	push	{r4, r5, r6}
 c00217e:	3a10      	subs	r2, #16
 c002180:	d303      	bcc.n	c00218a <__aeabi_memcpy4+0xe>
 c002182:	c978      	ldmia	r1!, {r3, r4, r5, r6}
 c002184:	3a10      	subs	r2, #16
 c002186:	c078      	stmia	r0!, {r3, r4, r5, r6}
 c002188:	d2fb      	bcs.n	c002182 <__aeabi_memcpy4+0x6>
 c00218a:	0753      	lsls	r3, r2, #29
 c00218c:	d301      	bcc.n	c002192 <__aeabi_memcpy4+0x16>
 c00218e:	c918      	ldmia	r1!, {r3, r4}
 c002190:	c018      	stmia	r0!, {r3, r4}
 c002192:	d501      	bpl.n	c002198 <__aeabi_memcpy4+0x1c>
 c002194:	c908      	ldmia	r1!, {r3}
 c002196:	c008      	stmia	r0!, {r3}
 c002198:	07d2      	lsls	r2, r2, #31
 c00219a:	d304      	bcc.n	c0021a6 <__aeabi_memcpy4+0x2a>
 c00219c:	880b      	ldrh	r3, [r1, #0]
 c00219e:	8003      	strh	r3, [r0, #0]
 c0021a0:	1c89      	adds	r1, r1, #2
 c0021a2:	1c80      	adds	r0, r0, #2
 c0021a4:	2a00      	cmp	r2, #0
 c0021a6:	d501      	bpl.n	c0021ac <__aeabi_memcpy4+0x30>
 c0021a8:	780b      	ldrb	r3, [r1, #0]
 c0021aa:	7003      	strb	r3, [r0, #0]
 c0021ac:	bc70      	pop	{r4, r5, r6}
 c0021ae:	4770      	bx	lr

0c0021b0 <__aeabi_memcpy>:
 c0021b0:	078b      	lsls	r3, r1, #30
 c0021b2:	d101      	bne.n	c0021b8 <__aeabi_memcpy+0x8>
 c0021b4:	0783      	lsls	r3, r0, #30
 c0021b6:	d0e1      	beq.n	c00217c <__aeabi_memcpy4>
 c0021b8:	4212      	tst	r2, r2
 c0021ba:	d005      	beq.n	c0021c8 <__iar_Memcpy+0xc>

0c0021bc <__iar_Memcpy>:
 c0021bc:	780b      	ldrb	r3, [r1, #0]
 c0021be:	1c49      	adds	r1, r1, #1
 c0021c0:	7003      	strb	r3, [r0, #0]
 c0021c2:	1c40      	adds	r0, r0, #1
 c0021c4:	1e52      	subs	r2, r2, #1
 c0021c6:	d1f9      	bne.n	c0021bc <__iar_Memcpy>
 c0021c8:	4770      	bx	lr
	...

0c0021cc <SOCPS_OSC2M_Cmd>:
 c0021cc:	4905      	ldr	r1, [pc, #20]	; (c0021e4 <SOCPS_OSC2M_Cmd+0x18>)
 c0021ce:	680a      	ldr	r2, [r1, #0]
 c0021d0:	b910      	cbnz	r0, c0021d8 <SOCPS_OSC2M_Cmd+0xc>
 c0021d2:	2001      	movs	r0, #1
 c0021d4:	4382      	bics	r2, r0
 c0021d6:	e002      	b.n	c0021de <SOCPS_OSC2M_Cmd+0x12>
 c0021d8:	2001      	movs	r0, #1
 c0021da:	4310      	orrs	r0, r2
 c0021dc:	0002      	movs	r2, r0
 c0021de:	600a      	str	r2, [r1, #0]
 c0021e0:	4770      	bx	lr
 c0021e2:	bf00      	nop
 c0021e4:	48000298 	.word	0x48000298

0c0021e8 <?Veneer 77 (3) for PAD_CMD>:
 c0021e8:	b408      	push	{r3}
 c0021ea:	4b02      	ldr	r3, [pc, #8]	; (c0021f4 <?Veneer 77 (3) for PAD_CMD+0xc>)
 c0021ec:	469c      	mov	ip, r3
 c0021ee:	bc08      	pop	{r3}
 c0021f0:	4760      	bx	ip
 c0021f2:	46c0      	nop			; (mov r8, r8)
 c0021f4:	000036b1 	.word	0x000036b1

0c0021f8 <pinmap_init>:
 c0021f8:	b570      	push	{r4, r5, r6, lr}
 c0021fa:	2400      	movs	r4, #0
 c0021fc:	f7ff fd8c 	bl	c001d18 <SOCPS_DsleepWakeStatusGet>
 c002200:	0006      	movs	r6, r0
 c002202:	e022      	b.n	c00224a <pinmap_init+0x52>
 c002204:	b2c9      	uxtb	r1, r1
 c002206:	6828      	ldr	r0, [r5, #0]
 c002208:	b2c0      	uxtb	r0, r0
 c00220a:	f7ff fa79 	bl	c001700 <?Veneer 76 (3) for PAD_PullCtrl>
 c00220e:	e01b      	b.n	c002248 <pinmap_init+0x50>
 c002210:	6868      	ldr	r0, [r5, #4]
 c002212:	28ff      	cmp	r0, #255	; 0xff
 c002214:	d018      	beq.n	c002248 <pinmap_init+0x50>
 c002216:	b17e      	cbz	r6, c002238 <pinmap_init+0x40>
 c002218:	6928      	ldr	r0, [r5, #16]
 c00221a:	b9a8      	cbnz	r0, c002248 <pinmap_init+0x50>
 c00221c:	6829      	ldr	r1, [r5, #0]
 c00221e:	2924      	cmp	r1, #36	; 0x24
 c002220:	d005      	beq.n	c00222e <pinmap_init+0x36>
 c002222:	2925      	cmp	r1, #37	; 0x25
 c002224:	d003      	beq.n	c00222e <pinmap_init+0x36>
 c002226:	2926      	cmp	r1, #38	; 0x26
 c002228:	d001      	beq.n	c00222e <pinmap_init+0x36>
 c00222a:	2927      	cmp	r1, #39	; 0x27
 c00222c:	d104      	bne.n	c002238 <pinmap_init+0x40>
 c00222e:	3924      	subs	r1, #36	; 0x24
 c002230:	483a      	ldr	r0, [pc, #232]	; (c00231c <.text_7>)
 c002232:	f000 f959 	bl	c0024e8 <CapTouch_GetChStatus>
 c002236:	b938      	cbnz	r0, c002248 <pinmap_init+0x50>
 c002238:	6869      	ldr	r1, [r5, #4]
 c00223a:	2903      	cmp	r1, #3
 c00223c:	d1e2      	bne.n	c002204 <pinmap_init+0xc>
 c00223e:	2100      	movs	r1, #0
 c002240:	6828      	ldr	r0, [r5, #0]
 c002242:	b2c0      	uxtb	r0, r0
 c002244:	f7ff ffd0 	bl	c0021e8 <?Veneer 77 (3) for PAD_CMD>
 c002248:	1c64      	adds	r4, r4, #1
 c00224a:	4835      	ldr	r0, [pc, #212]	; (c002320 <.text_8>)
 c00224c:	2114      	movs	r1, #20
 c00224e:	4361      	muls	r1, r4
 c002250:	1845      	adds	r5, r0, r1
 c002252:	6828      	ldr	r0, [r5, #0]
 c002254:	2100      	movs	r1, #0
 c002256:	43c9      	mvns	r1, r1
 c002258:	4288      	cmp	r0, r1
 c00225a:	d1d9      	bne.n	c002210 <pinmap_init+0x18>
 c00225c:	bd70      	pop	{r4, r5, r6, pc}

0c00225e <pinmap_sleep>:
 c00225e:	b570      	push	{r4, r5, r6, lr}
 c002260:	2400      	movs	r4, #0
 c002262:	e014      	b.n	c00228e <pinmap_sleep+0x30>
 c002264:	2101      	movs	r1, #1
 c002266:	b2e8      	uxtb	r0, r5
 c002268:	f7ff ffbe 	bl	c0021e8 <?Veneer 77 (3) for PAD_CMD>
 c00226c:	b2f1      	uxtb	r1, r6
 c00226e:	b2e8      	uxtb	r0, r5
 c002270:	f7ff fa46 	bl	c001700 <?Veneer 76 (3) for PAD_PullCtrl>
 c002274:	e00a      	b.n	c00228c <pinmap_sleep+0x2e>
 c002276:	6881      	ldr	r1, [r0, #8]
 c002278:	29ff      	cmp	r1, #255	; 0xff
 c00227a:	d007      	beq.n	c00228c <pinmap_sleep+0x2e>
 c00227c:	6805      	ldr	r5, [r0, #0]
 c00227e:	460e      	mov	r6, r1
 c002280:	2e03      	cmp	r6, #3
 c002282:	d1ef      	bne.n	c002264 <pinmap_sleep+0x6>
 c002284:	2100      	movs	r1, #0
 c002286:	b2e8      	uxtb	r0, r5
 c002288:	f7ff ffae 	bl	c0021e8 <?Veneer 77 (3) for PAD_CMD>
 c00228c:	1c64      	adds	r4, r4, #1
 c00228e:	f000 f81a 	bl	c0022c6 <.text_5>
 c002292:	d1f0      	bne.n	c002276 <pinmap_sleep+0x18>
 c002294:	bd70      	pop	{r4, r5, r6, pc}

0c002296 <pinmap_deepsleep>:
 c002296:	b510      	push	{r4, lr}
 c002298:	2400      	movs	r4, #0
 c00229a:	e010      	b.n	c0022be <pinmap_deepsleep+0x28>
 c00229c:	b2c9      	uxtb	r1, r1
 c00229e:	6800      	ldr	r0, [r0, #0]
 c0022a0:	b2c0      	uxtb	r0, r0
 c0022a2:	f7ff fa2d 	bl	c001700 <?Veneer 76 (3) for PAD_PullCtrl>
